(dp0
S'module'
p1
I388
sS'badname_function'
p2
I1219
sS'badname_const'
p3
I566
sS'badname_inlinevar'
p4
I0
sS'badname_class'
p5
I6
sS'refactor'
p6
I0
sS'badname_argument'
p7
I1483
sS'statement'
p8
I59136
sS'by_msg'
p9
(dp10
sS'fatal'
p11
I0
sS'method'
p12
I2629
sS'function'
p13
I1824
sS'badname_variable'
p14
I7450
sS'convention'
p15
I0
sS'badname_module'
p16
I22
sS'dependencies'
p17
(dp18
S'sqlalchemy.exc.SAWarning'
p19
c__builtin__
set
p20
((lp21
S'test.wsapitest.cmswebservice'
p22
atp23
Rp24
sS'events.messages.add_queues'
p25
g20
((lp26
S'events'
p27
atp28
Rp29
sS'publish3.tools.migration.relaysources'
p30
g20
((lp31
S'publish3.tools.migration.channels'
p32
atp33
Rp34
sS'publish3.Ingestion.EncodePrep'
p35
g20
((lp36
S'publish3'
p37
atp38
Rp39
sS'test.rim.RIMError'
p40
g20
((lp41
S'test.test_Metadata'
p42
aS'test.test_Settings'
p43
aS'test.test_EPG'
p44
aS'test.test_EPG_Source'
p45
aS'test.test_Avail_Import'
p46
aS'test.test_AssetFetch'
p47
aS'test.test_LiveWorkflow'
p48
aS'test.test_IntegrationAPI'
p49
aS'test.test_SyndicationWorkflow'
p50
atp51
Rp52
sS'QIS.jobctl._H'
p53
g20
((lp54
S'publish3.tools.interactive'
p55
atp56
Rp57
sS'publish3.Track.Trigger'
p58
g20
((lp59
S'test.test_AssetTrack'
p60
atp61
Rp62
sS'datetime.timedelta'
p63
g20
((lp64
S'CMS.ConfigSettings'
p65
aS'test.wsapitest.seasontest'
p66
aS'webservice.common'
p67
aS'webservice.franchise'
p68
aS'publish3.Rim'
p69
aS'publish3.source_event'
p70
aS'test.sourcechanneltest'
p71
aS'events.messagehandlers'
p72
aS'test.wsapitest.airing_ws_test'
p73
aS'test.wsapitest.asset_ws_test'
p74
aS'publish3.tools.xmlutil.bigflixchunker'
p75
aS'test.wsapitest.station_ws_test'
p76
aS'webservice.channels'
p77
aS'publish3.SourceSet'
p78
aS'publish3.Channel'
p79
aS'test.wsapitest.hostruletest'
p80
aS'test.wsapitest.pseudoseriestest'
p81
aS'publish3.tools.touch_assets'
p82
aS'test.wsapitest.asset_search_rim_test'
p83
aS'test.domain_lineupschedule_test'
p84
aS'test.wsapitest.franchisetest'
p85
aS'test.wsapitest.adbreaktest'
p86
aS'CMS.collutil'
p87
aS'test.sourcetest'
p88
aS'test.test_readstatic'
p89
aS'publish3.Asset'
p90
aS'epgimport.epg.schedule'
p91
aS'publish3.source'
p92
aS'webservice.syndication'
p93
aS'test.test_clipless'
p94
aS'test.wsapitest.airing_overlaps_ws_test'
p95
aS'publish3.playback_info'
p96
aS'test.searchtest'
p97
aS'publish3.tools.finalize_streams'
p98
aS'CMS.admin'
p99
aS'test.wsapitest.playback_ws_test'
p100
aS'test.wsapitest.blackout_ws_test'
p101
aS'test.wsapitest.search_ws_test'
p102
atp103
Rp104
sS'Crypto.Cipher.AES'
p105
g20
((lp106
S'publish3.tools.b64aes'
p107
atp108
Rp109
sS'sqlalchemy.MetaData'
p110
g20
((lp111
S'CMS.DB'
p112
atp113
Rp114
sS're'
p115
g20
((lp116
g76
aS'test.wsapitest.celebrity_ws_test'
p117
aS'CMS.CMSWSGIHandler'
p118
aS'publish3.MediaViewIntegration'
p119
aS'Streamlets.encryptkeys'
p120
aS'CMS.StreamEdit'
p121
ag96
aS'test.wsapitest.teamtest'
p122
aS'publish3.tools.epgdaily'
p123
aS'CMS.rimdoc'
p124
aS'publish3.pseudo_series'
p125
aS'CMS.ORM'
p126
aS'test.wsapitest.program_ws_test'
p127
aS'test.wsapitest.vendor_ws_test'
p128
atp129
Rp130
sS'events.messages.remove_queues'
p131
g20
((lp132
g27
atp133
Rp134
sS'test.async.MICRO_SLEEP'
p135
g20
((lp136
S'test.test_sync'
p137
atp138
Rp139
sS'publish3.tools.migration'
p140
g20
((lp141
S'publish3.tools.migrate'
p142
atp143
Rp144
sS'test.global_data.CreateLiveTestAssets'
p145
g20
((lp146
g89
ag47
atp147
Rp148
sS'publish3.Common.Migrate'
p149
g20
((lp150
g90
atp151
Rp152
sS'publish3.integration.contentdirect.sync.setup_triggers'
p153
g20
((lp154
g137
aS'publish3.DBTables'
p155
atp156
Rp157
sS'CMS.SSH2'
p158
g20
((lp159
S'QIS.Encode'
p160
atp161
Rp162
sS'sqlalchemy.pool'
p163
g20
((lp164
g112
atp165
Rp166
sS'sqlalchemy.databases.postgres.PGArray'
p167
g20
((lp168
g155
atp169
Rp170
sS'CMS.WSGIApp._HTTPReturnError'
p171
g20
((lp172
g118
aS'publish3.dynamic.folder'
p173
aS'CMS.rim'
p174
aS'publish3.dynamic.channel'
p175
atp176
Rp177
sS'PIL.BmpImagePlugin'
p178
g20
((lp179
g126
atp180
Rp181
sS'CMS.ORMLib.JSONType'
p182
g20
((lp183
g155
atp184
Rp185
sS'publish3.epg.schedule.Schedule'
p186
g20
((lp187
g69
atp188
Rp189
sS'events.messages'
p190
g20
((lp191
S'CMS.transaction'
p192
ag118
atp193
Rp194
sS'publish3.devices.Device'
p195
g20
((lp196
S'publish3.tools.device_restrictions'
p197
atp198
Rp199
sS'CMS.Util.PostEmail'
p200
g20
((lp201
g160
atp202
Rp203
sS'CMS.ORM.not_'
p204
g20
((lp205
g77
ag68
atp206
Rp207
sS'CMS.Util.DynamicURLHandler'
p208
g20
((lp209
S'publish3.dynamic.container'
p210
aS'publish3.dynamic.monitor'
p211
aS'publish3.dynamic.horror'
p212
atp213
Rp214
sg93
g20
((lp215
S'webservice'
p216
atp217
Rp218
sS'CMS.Util.GetJunction'
p219
g20
((lp220
g160
atp221
Rp222
sS'flask.request'
p223
g20
((lp224
S'webservice.security.decorators'
p225
aS'webservice.hostrules'
p226
aS'webservice.security.session'
p227
atp228
Rp229
sS'mnpy.Bag'
p230
g20
((lp231
S'CMS.reencrypt'
p232
aS'SD.JobQ'
p233
aS'CMS.comp'
p234
aS'CMS.dbtypes'
p235
atp236
Rp237
sS'CMS.DB.db'
p238
g20
((lp239
g77
aS'publish3.tools.asset.sch_fix'
p240
ag68
aS'devtools.fakelive_setup'
p241
aS'publish3.tools.vod.mod_offer'
p242
atp243
Rp244
sS'CMS.ORM.and_'
p245
g20
((lp246
S'publish3.ViewStats'
p247
atp248
Rp249
sS'mnpy.Monitoring.STATUS_WARNING'
p250
g20
((lp251
S'publish3.MonitorPublisher'
p252
atp253
Rp254
sS'publish3.RetiredAsset'
p255
g20
((lp256
g90
atp257
Rp258
sS'publish3.Common.Origination'
p259
g20
((lp260
g42
aS'test.qis_video_test'
p261
ag94
ag155
ag45
ag241
aS'test.epgchangetest'
p262
ag90
ag47
ag69
aS'publish3.PUtil'
p263
ag48
aS'webservice.sources'
p264
aS'test.test_MediaViewIntegration'
p265
aS'publish3.tools.sourceAutoAssets'
p266
ag50
aS'test.test_Monitors'
p267
aS'publish3.BroadcastFeed'
p268
atp269
Rp270
sS'publish3.season.Season'
p271
g20
((lp272
S'publish3.program'
p273
ag68
ag90
aS'webservice.programs'
p274
ag77
aS'publish3.Entitlement'
p275
aS'publish3.syndicationmessagehandlers'
p276
aS'publish3.franchise'
p277
aS'webservice.season'
p278
atp279
Rp280
sS'publish3.Metadata.MDValue'
p281
g20
((lp282
g247
aS'publish3.tools.vod.street_date'
p283
atp284
Rp285
sS'publish3.Entitlement'
p286
g20
((lp287
S'webservice.assets'
p288
aS'publish3.tools.vodsyndication.assets'
p289
ag96
ag97
ag100
ag83
aS'publish3.dynamic.entitlement'
p290
ag197
ag173
ag69
ag102
atp291
Rp292
sS'publish3.Ingestion.EncodeDone'
p293
g20
((lp294
g37
atp295
Rp296
sS'publish3.Asset.CreateAssetFromLive'
p297
g20
((lp298
g94
ag241
ag264
atp299
Rp300
sS'CMS.ORM.streamsources'
p301
g20
((lp302
g92
atp303
Rp304
sS'sqlalchemy.Table'
p305
g20
((lp306
S'CMS.AuditLog'
p307
atp308
Rp309
sS'codecs.utf_8_encode'
p310
g20
((lp311
g126
aS'CMS.Util'
p312
atp313
Rp314
sS'publish3.PUtil.node_lock'
p315
g20
((lp316
S'publish3.tools.vodsyndication'
p317
atp318
Rp319
sS'os.path.join'
p320
g20
((lp321
S'QIS.IngestThis'
p322
atp323
Rp324
sS'test.async.TINY_SLEEP'
p325
g20
((lp326
g42
ag45
ag46
ag267
aS'test.rim'
p327
ag47
aS'test.test_thermos'
p328
ag71
aS'test.sitetest'
p329
ag265
ag49
aS'test.HTTP_Request'
p330
atp331
Rp332
sS'publish3.Schedule'
p333
g20
((lp334
S'publish3.tools.scheduleLoop'
p335
ag267
ag265
ag48
ag50
aS'publish3.tools.RandomChannels'
p336
ag79
aS'publish3.Domain'
p337
ag84
ag175
ag69
ag45
ag46
ag90
aS'events.messages'
p338
ag71
ag210
ag96
aS'publish3.Folder'
p339
ag100
ag290
aS'publish3.dynamic.legacy'
p340
atp341
Rp342
sS'PIL.Image'
p343
g20
((lp344
g126
aS'test.image_test'
p345
atp346
Rp347
sS'CMS.ORM.or_'
p348
g20
((lp349
g68
aS'test.qis_metadata_test'
p350
atp351
Rp352
sS'mnpy.Bag.XMLEncode'
p353
g20
((lp354
S'publish3.dynamic.config'
p355
aS'publish3.dynamic.subscription_pack'
p356
ag175
ag173
aS'publish3.dynamic.drm'
p357
aS'publish3.dynamic.domain'
p358
atp359
Rp360
sS'publish3.MonitorPublisher.STATUS_OK'
p361
g20
((lp362
g267
atp363
Rp364
sS'codecs'
p365
g20
((lp366
S'publish3.Metadata'
p367
atp368
Rp369
sS'CMS.Users._GetFirstName'
p370
g20
((lp371
S'CMS.UserAdmin'
p372
atp373
Rp374
sS'CMS.WSGIApp.MAX_POST_BODY'
p375
g20
((lp376
g118
atp377
Rp378
sS'CMS.DBUpgrades.GetUpgradeLevel'
p379
g20
((lp380
S'CMS.DonLib'
p381
atp382
Rp383
sS'test.testenv.BIG_SLEEP'
p384
g20
((lp385
S'test.async'
p386
atp387
Rp388
sS'publish3.DateTimeUtil.LocalToUtc'
p389
g20
((lp390
g263
atp391
Rp392
sS'publish3.ComplexSetting.ComplexSetting'
p393
g20
((lp394
S'publish3.Upgrades'
p395
ag312
ag355
aS'publish3.host_rules'
p396
atp397
Rp398
sS'CMS.Util.GetJunctions'
p399
g20
((lp400
g381
atp401
Rp402
sS'CMS.publishercontext'
p403
g20
((lp404
g37
ag65
aS'publish3.tools.fixmd'
p405
aS'publish3.tools.MediaViewCrawler'
p406
aS'test.global_data'
p407
aS'publish3.tools.readstatic'
p408
ag267
aS'CMS.Session'
p409
ag265
ag275
ag289
aS'publish3.tools.publisher'
p410
aS'publish3.tools.vodrss'
p411
ag50
ag99
aS'test.publisher'
p412
ag78
ag123
ag142
aS'CMS.Snapshot'
p413
aS'publish3.search'
p414
aS'SD.ArchiveJob'
p415
aS'CMS.Settings'
p416
aS'publish3.tools.ManualVODSyndication'
p417
aS'CMS.Users'
p418
ag263
aS'publish3.tools.vodsyndication.assetchk'
p419
aS'publish3.Schedule'
p420
ag330
aS'QIS'
p421
aS'SD.StreamCheckJob'
p422
ag247
aS'publish3.season'
p423
aS'CMS.ConfigRoot'
p424
ag55
ag46
ag355
ag372
ag90
aS'publish3.tools.loadmeta'
p425
ag338
aS'publish3.dynamic.syndication'
p426
ag112
aS'publish3.tools.remove_billing_event'
p427
aS'CMS.Reporting'
p428
ag395
ag233
ag92
ag126
aS'publish3.tools.vodstats'
p429
ag118
aS'CMS.GuardiaUserSource'
p430
aS'publish3.publisherlogging'
p431
ag96
aS'publish3.tools.readtribune'
p432
ag312
ag339
ag192
aS'publish3.tools.readechostar'
p433
aS'publish3.messagehandlers'
p434
aS'SD.DeleteJob'
p435
ag381
aS'publish3.Container'
p436
aS'CMS.Cache'
p437
ag22
atp438
Rp439
sS'webservice.stations'
p440
g20
((lp441
g216
atp442
Rp443
sS'Crypto.Hash.SHA'
p444
g20
((lp445
g312
atp446
Rp447
sS'kombu.messaging.Producer'
p448
g20
((lp449
g338
atp450
Rp451
sS'CMS.CMSWSGIHandler.RunServer'
p452
g20
((lp453
S'publish3.tools.publisherserver'
p454
atp455
Rp456
sS'mnpy.Monitoring.STATUS_UNKNOWN'
p457
g20
((lp458
g69
ag252
atp459
Rp460
sS'Crypto.Signature.PKCS1_v1_5'
p461
g20
((lp462
g312
atp463
Rp464
sS'publish3.Property'
p465
g20
((lp466
S'publish3.tools.LoadThumbnails'
p467
ag69
aS'publish3.Catalog'
p468
atp469
Rp470
sS'CMS.ORM.Table'
p471
g20
((lp472
g233
atp473
Rp474
sS'publish3.Channel'
p475
g20
((lp476
g66
ag407
ag32
ag335
ag69
ag252
aS'publish3.tools.ManualChannelSyndication'
p477
ag265
ag48
ag49
ag336
ag42
ag81
ag337
ag83
ag84
ag175
ag420
aS'publish3.tools.complex_setting'
p478
ag85
aS'publish3.tools.migration.subpacks'
p479
aS'publish3.tools.migration.domains'
p480
aS'publish3.tools.channel'
p481
ag45
ag46
ag71
ag210
ag262
aS'publish3.tools.domain_wizard'
p482
ag97
ag356
ag99
ag100
ag340
ag96
ag102
atp483
Rp484
sS'publish3.Syndication.UpdateSyndicatedSource'
p485
g20
((lp486
g90
atp487
Rp488
sS'psycopg2.InterfaceError'
p489
g20
((lp490
g381
atp491
Rp492
sg327
g20
((lp493
g267
atp494
Rp495
sS'publish3.tools.inputhelper.get_input'
p496
g20
((lp497
S'devtools.host_rules'
p498
aS'publish3.PricingModel'
p499
ag275
aS'publish3.ComplexSetting'
p500
ag197
ag478
atp501
Rp502
sS'publish3.program.Program'
p503
g20
((lp504
g423
ag288
ag95
ag68
ag90
ag274
ag77
ag275
ag276
ag264
ag73
ag74
ag127
ag277
atp505
Rp506
sS'publish3.EPG'
p507
g20
((lp508
g408
ag48
ag433
ag432
atp509
Rp510
sS'CMS.ORM.EmailRecord'
p511
g20
((lp512
g312
atp513
Rp514
sS'publish3.Common.EPG'
p515
g20
((lp516
g395
ag155
ag407
ag45
ag408
ag432
ag263
ag89
ag265
ag433
atp517
Rp518
sS'test.testenv.TINY_SLEEP'
p519
g20
((lp520
g386
atp521
Rp522
sS'memcache'
p523
g20
((lp524
g437
atp525
Rp526
sS'voluptuous.ExactSequence'
p527
g20
((lp528
g100
atp529
Rp530
sS'sqlalchemy.types'
p531
g20
((lp532
S'CMS.ORMLib'
p533
ag155
ag235
atp534
Rp535
sS'test.FolderPageValidation.ValidateFolderAssetQVT'
p536
g20
((lp537
g45
atp538
Rp539
sS'publish3.Metadata.MDType'
p540
g20
((lp541
g155
atp542
Rp543
sS'test.global_data.GLOBAL_DATA'
p544
g20
((lp545
g66
ag267
ag48
aS'test.FolderPageValidation'
p546
ag49
ag50
ag42
ag412
ag80
ag81
ag47
aS'test.rimtest'
p547
ag327
ag89
ag330
ag85
ag43
ag45
ag46
aS'test.ChannelPageValidation'
p548
aS'test.test_AssetVisibility'
p549
ag265
ag44
ag345
ag94
aS'test.test_AssetLinked'
p550
atp551
Rp552
sS'test.FolderPageValidation.ValidateQVT'
p553
g20
((lp554
g45
atp555
Rp556
sS'publish3.DBTables'
p557
g20
((lp558
g37
ag273
aS'publish3.tools.uberdeath'
p559
ag499
ag275
aS'publish3.Track'
p560
ag465
ag277
aS'publish3.SubscriptionPack'
p561
aS'publish3.Precomputation'
p562
aS'publish3.celebrity'
p563
ag412
ag78
aS'publish3.licensor'
p564
ag337
ag263
ag420
aS'publish3.Syndication'
p565
ag423
aS'cms.ribbon'
p566
aS'publish3.MiscProduct'
p567
ag90
aS'publish3.EncryptionGroup'
p568
ag367
aS'publish3.Template'
p569
ag125
ag500
aS'publish3.Containment'
p570
ag395
aS'publish3.team'
p571
ag255
aS'publish3.Settings'
p572
ag70
aS'cms.servicepartnerid'
p573
aS'publish3.device_restrictions'
p574
aS'publish3.devices'
p575
ag436
atp576
Rp577
sS'publish3.Asset.AssetMD'
p578
g20
((lp579
g247
aS'publish3.tools.grabimages'
p580
ag283
atp581
Rp582
sS'publish3.device_restrictions'
p583
g20
((lp584
g426
atp585
Rp586
sS'release_version.version'
p587
g20
((lp588
g263
ag160
atp589
Rp590
sS'mnpy.dftplib'
p591
g20
((lp592
S'CMS.FTPHelp'
p593
atp594
Rp595
sS'publish3.SourceSet.MassGetSourceStatus'
p596
g20
((lp597
g252
atp598
Rp599
sS'publish3.Common'
p600
g20
((lp601
g289
aS'publish3.tools.vodsyndication.folder'
p602
ag356
ag339
ag276
ag84
ag71
ag436
atp603
Rp604
sS'webservice.security.decorators.roles_required'
p605
g20
((lp606
S'webservice.teams'
p607
ag288
aS'webservice.search'
p608
ag226
ag68
ag274
aS'webservice.streams'
p609
ag264
aS'webservice.celebrities'
p610
aS'webservice.servicepartners'
p611
aS'webservice.ribbons'
p612
ag278
aS'webservice.vendors'
p613
ag440
atp614
Rp615
sS'CMS.ORMLib.TSVector'
p616
g20
((lp617
g155
atp618
Rp619
sS'CMS.Util.PostOpsEmail'
p620
g20
((lp621
g160
atp622
Rp623
sg226
g20
((lp624
g216
atp625
Rp626
sS'publish3.celebrity.Celebrity'
p627
g20
((lp628
g289
ag90
aS'publish3.tools.vodsyndication.celebrities'
p629
ag426
ag275
ag610
atp630
Rp631
sS'Streamlets.qssreader'
p632
g20
((lp633
S'Streamlets.qmxlib'
p634
ag121
ag232
aS'Streamlets.qssdump'
p635
ag415
ag422
aS'CMS.QMXReader'
p636
atp637
Rp638
sS'test.testenv.CMS_BASE_URL'
p639
g20
((lp640
g327
atp641
Rp642
sS'mnpy.mediainfo2.get_mediainfo'
p643
g20
((lp644
g261
atp645
Rp646
sS'test.async.BIG_SLEEP'
p647
g20
((lp648
g71
ag48
ag45
atp649
Rp650
sS'publish3.MVEpisode'
p651
g20
((lp652
S'publish3.tools.mediaview.vod'
p653
atp654
Rp655
sS'kombu.mixins.ConsumerMixin'
p656
g20
((lp657
g338
atp658
Rp659
sS'CMS.ORMLib.or_'
p660
g20
((lp661
g92
atp662
Rp663
sS'webservice.httpstatuscodes'
p664
g20
((lp665
g67
ag66
ag608
ag68
ag226
aS'webservice.pseudoseries'
p666
aS'test.wsapitest.servicepartnertest'
p667
ag264
ag612
ag76
ag227
ag81
ag274
ag613
ag610
ag611
ag85
ag609
ag127
ag93
ag117
ag607
aS'webservice.wsutil'
p668
ag288
ag122
ag128
ag77
ag278
ag440
atp669
Rp670
sS'publish3.Asset.AssetState'
p671
g20
((lp672
g137
atp673
Rp674
sS'CMS.ConfigSettings'
p675
g20
((lp676
g37
aS'QIS.jobctl'
p677
ag565
ag266
ag358
ag412
aS'CMS.rimcore'
p678
ag276
ag421
ag45
aS'publish3.config'
p679
ag90
aS'CMS.attic'
p680
ag338
ag395
ag92
ag93
ag430
ag252
ag356
ag424
ag422
ag415
ag580
ag340
ag407
ag290
ag174
ag275
ag411
ag50
ag339
aS'QIS.Schedule'
p681
ag337
ag413
ag414
ag175
ag572
ag330
ag247
ag418
aS'publish3.tools.source.historical_streams'
p682
ag426
aS'publish3.dynamic.assetmd'
p683
ag126
ag210
ag118
ag160
ag329
aS'CMS.config'
p684
ag435
ag436
ag67
aS'test.testconfiguration'
p685
ag267
ag499
ag73
aS'publish3.ratings'
p686
ag74
ag79
ag232
ag234
ag89
ag84
ag263
aS'QIS.config'
p687
aS'publish3.dynamic.source'
p688
ag265
ag357
aS'QIS.metadata'
p689
ag155
ag408
ag123
ag433
aS'publish3.Ingestion'
p690
ag69
aS'publish3.dynamic.asset'
p691
ag48
aS'publish3.Lifecycle'
p692
ag78
aS'CMS'
p693
ag173
ag478
aS'publish3.dynamic.vodrss'
p694
ag409
ag46
ag355
ag428
aS'publish3.integration.digitalsmiths'
p695
ag227
aS'QIS.EncPrep'
p696
ag289
ag121
ag96
ag97
ag312
ag99
aS'CMS.WSGIApp'
p697
atp698
Rp699
sS'publish3.MonitorPublisher.STATUS_WARNING'
p700
g20
((lp701
g267
atp702
Rp703
sS'CMS.ORM.ORMObjMeta'
p704
g20
((lp705
g233
atp706
Rp707
sS'publish3.Containment'
p708
g20
((lp709
g45
ag69
ag90
ag339
ag436
ag340
atp710
Rp711
sS'types'
p712
g20
((lp713
S'publish3.dynamic.debug'
p714
ag92
ag126
atp715
Rp716
sg533
g20
((lp717
g381
ag409
atp718
Rp719
sS'CMS.ORM.Clip'
p720
g20
((lp721
g100
atp722
Rp723
sS'mnpy.Monitoring.STATUS_OK'
p724
g20
((lp725
g252
atp726
Rp727
sS'publish3.DateTimeUtil'
p728
g20
((lp729
S'test.test_HqTime'
p730
atp731
Rp732
sS'publish3.tools.mediaview.consumer.MediaViewConsumer'
p733
g20
((lp734
S'publish3.tools.mediaview'
p735
aS'publish3.tools.mediaview.franchise'
p736
atp737
Rp738
sS'QIS.Common.JobType'
p739
g20
((lp740
g160
ag690
ag677
atp741
Rp742
sS'wsgi_intercept'
p743
g20
((lp744
g22
atp745
Rp746
sS'CMS.DonLib.Event'
p747
g20
((lp748
g427
atp749
Rp750
sS'psycopg2.OperationalError'
p751
g20
((lp752
g381
atp753
Rp754
sS'CMS.ORMLib.BASE_COLUMNS'
p755
g20
((lp756
g155
atp757
Rp758
sS'mnpy.timer.Timer'
p759
g20
((lp760
g312
atp761
Rp762
sg264
g20
((lp763
g216
atp764
Rp765
sS'publish3.tools.publisher'
p766
g20
((lp767
S'cmsrun'
p768
atp769
Rp770
sS'publish3.Common.Limit'
p771
g20
((lp772
g340
atp773
Rp774
sS'webservice.common.url_base'
p775
g20
((lp776
g68
ag608
ag274
atp777
Rp778
sS'CMS.Cache.Cache'
p779
g20
((lp780
g247
ag409
ag118
ag312
ag381
ag263
atp781
Rp782
sS'publish3.Container.ContainerMD'
p783
g20
((lp784
g580
atp785
Rp786
sS'yaml'
p787
g20
((lp788
S'testit'
p789
aS'setup'
p790
aS'update'
p791
aS'test.testenv'
p792
aS'linty'
p793
aS'clean'
p794
aS'test.test_yaya'
p795
aS'build-dpkg'
p796
atp797
Rp798
sS'mnpy.jsonlib.Encode'
p799
g20
((lp800
g69
atp801
Rp802
sS'QIS.Profile'
p803
g20
((lp804
g160
ag421
atp805
Rp806
sg610
g20
((lp807
g216
atp808
Rp809
sS'CMS.GuardiaUserSource.GuardiaUserSource'
p810
g20
((lp811
g409
atp812
Rp813
sS'dateutil.parser.parse'
p814
g20
((lp815
g70
ag82
ag91
ag419
ag694
ag242
atp816
Rp817
sS'sqlalchemy.PassiveDefault'
p818
g20
((lp819
g307
atp820
Rp821
sS'publish3.source.EventType'
p822
g20
((lp823
g88
ag79
ag96
ag100
ag426
ag276
ag264
atp824
Rp825
sS'test.async.wait_for_result'
p826
g20
((lp827
g350
ag407
ag46
ag329
ag48
ag265
atp828
Rp829
sS'publish3.Asset'
p830
g20
((lp831
S'publish3.tools.qmx_to_asset_metadata'
p832
ag405
ag66
ag407
ag335
ag267
ag69
ag337
ag265
ag48
ag653
ag695
ag72
ag546
ag266
ag411
ag50
ag336
ag42
ag44
ag78
ag79
ag81
ag47
ag274
ag608
ag83
ag276
ag84
ag175
ag263
ag419
ag173
ag268
ag420
ag330
ag85
ag43
ag692
ag88
aS'publish3.tools.migration.folders'
p833
ag417
ag45
ag46
ag338
ag690
ag683
aS'publish3.tools.vodsyndication.links'
p834
ag549
ag197
ag71
aS'publish3.tools.qmxImport3'
p835
ag92
ag689
ag288
ag210
ag68
ag340
ag560
aS'publish3.dynamic.upload'
p836
ag691
ag289
ag262
ag468
aS'QIS.rim'
p837
ag97
ag339
ag100
aS'publish3.tools.migration.helpers'
p838
ag290
ag436
ag565
aS'publish3.tools.ImportDemoVOD'
p839
ag96
aS'publish3.tools.RandomAssets'
p840
ag102
atp841
Rp842
sS'publish3.playback_info.add_playback_info'
p843
g20
((lp844
g210
ag691
ag290
ag77
atp845
Rp846
sS'test.FolderPageValidation.ValidateFolderQVT'
p847
g20
((lp848
g45
atp849
Rp850
sS'Streamlets.QSS'
p851
g20
((lp852
g121
ag634
ag415
aS'Streamlets.qsswriter'
p853
aS'Streamlets.qssreader'
p854
atp855
Rp856
sS'IPy'
p857
g20
((lp858
g263
ag355
ag357
atp859
Rp860
sS'publish3.ratings.max_upr_rating'
p861
g20
((lp862
g77
atp863
Rp864
sS'publish3.tools.migration.subpacks'
p865
g20
((lp866
g480
atp867
Rp868
sS'publish3.tools.ap.secrets.HEARTBEAT'
p869
g20
((lp870
g357
atp871
Rp872
sg307
g20
((lp873
S'CMS.DBUpgrades'
p874
ag174
ag126
ag678
atp875
Rp876
sS'publish3.publisherlogging'
p877
g20
((lp878
g410
ag454
atp879
Rp880
sS'CMS.rimcore.UpdateObjectWithArgs'
p881
g20
((lp882
g428
atp883
Rp884
sS'publish3.MonitorPublisher'
p885
g20
((lp886
g211
ag69
atp887
Rp888
sS'voluptuous.Required'
p889
g20
((lp890
g80
ag667
ag607
ag100
ag278
atp891
Rp892
sS'CMS.ORM.Image'
p893
g20
((lp894
g66
ag273
ag68
ag328
ag666
ag75
ag277
ag563
ag127
aS'test.qis_image_test'
p895
ag81
ag274
ag610
ag607
ag85
ag423
ag125
ag571
ag345
ag117
ag118
ag350
ag77
ag278
atp896
Rp897
sS'events.messages.on_message'
p898
g20
((lp899
g37
ag692
ag160
ag90
ag413
ag276
ag421
ag695
ag434
ag312
ag420
ag689
ag636
atp900
Rp901
sS'publish3.DateTimeUtil.UtcToLocal'
p902
g20
((lp903
g572
atp904
Rp905
sS'mnpy.shuffle'
p906
g20
((lp907
g634
atp908
Rp909
sS'publish3.DateTimeUtil.TsFromNaiveUtcDateTime'
p910
g20
((lp911
g565
atp912
Rp913
sS'publish3.tools.securemedia'
p914
g20
((lp915
g357
atp916
Rp917
sS'mnpy.Bag.Bag'
p918
g20
((lp919
g405
aS'CMS.benchmark'
p920
ag47
ag124
ag358
ag678
ag81
ag602
ag83
ag276
ag735
ag803
ag60
ag421
aS'publish3.tools.precache'
p921
ag423
ag417
ag45
ag372
ag90
ag569
ag112
ag500
ag212
ag419
ag395
ag92
ag173
ag477
ag307
ag430
ag420
aS'test.Test'
p922
ag252
ag356
ag381
ag100
ag424
ag422
ag101
ag565
ag560
aS'CMS.ConfigRIM'
p923
ag290
ag328
ag174
ag275
aS'CMS.globalconfig'
p924
ag411
ag50
ag42
ag563
ag44
ag339
ag80
ag681
ag337
ag175
ag572
ag283
ag88
ag833
aS'publish3.thermaview'
p925
ag682
ag367
ag426
ag683
ag834
ag549
ag126
ag345
ag261
ag340
ag160
ag435
aS'publish3.tools.vodsyndication.licensors'
p926
ag436
ag102
aS'publish3.DateTimeUtil'
p927
ag428
ag499
aS'QIS.Encoder'
p928
ag653
ag72
ag119
ag465
ag561
ag79
ag895
ag564
ag415
ag84
aS'publish3.tools.xmlutil.abstracthandler'
p929
ag263
ag840
ag43
aS'publish3.tools.migration.mdkeys'
p930
ag425
ag71
ag357
ag689
aS'publish3.EPG'
p931
ag350
ag241
ag629
ag268
ag433
ag574
ag690
aS'publish3.assetloader'
p932
ag468
ag66
ag32
ag69
ag97
ag691
ag48
aS'publish3.epg.schedule'
p933
ag312
ag277
ag233
ag78
ag693
ag567
aS'publish3.AdiParser'
p934
aS'test.useradmintest'
p935
ag838
aS'publish3.tms_prg_service'
p936
ag85
ag409
ag46
aS'publish3.tools.vodsyndication.device_restrictions'
p937
ag568
ag355
aS'CMS.qvtcheck'
p938
ag570
ag533
ag94
ag289
ag96
aS'SD.JobQClient'
p939
ag837
ag70
ag123
ag98
aS'publish3.tools.livesynd'
p940
atp941
Rp942
sS'publish3.tools.inputhelper.format_list'
p943
g20
((lp944
g498
ag197
atp945
Rp946
sS'QIS.ExtractSetting'
p947
g20
((lp948
g160
atp949
Rp950
sg407
g20
((lp951
g66
ag267
ag73
ag328
ag48
ag546
ag74
ag49
ag50
ag42
ag412
aS'test.wsapitest.sourcetest'
p952
ag895
ag81
ag47
ag547
ag89
ag550
ag85
ag43
ag76
ag45
ag549
ag265
ag44
ag127
ag345
ag261
ag94
ag350
ag95
ag262
ag667
ag122
ag128
atp953
Rp954
sS'publish3.integration.contentdirect.sync.sync_with_contentdirect'
p955
g20
((lp956
S'publish3.tools.sync_with_contentdirect'
p957
atp958
Rp959
sS'publish3.Track.Segment'
p960
g20
((lp961
g60
atp962
Rp963
sg174
g20
((lp964
g118
ag307
ag923
ag678
ag355
ag69
ag922
ag837
ag928
ag268
ag124
ag381
ag428
ag232
ag263
ag357
ag372
atp965
Rp966
sS'CMS.ORMLib.ORMObj'
p967
g20
((lp968
g273
ag499
ag275
ag560
ag465
ag277
ag561
ag562
ag563
ag78
ag564
ag337
ag263
ag936
ag420
ag423
ag566
ag567
ag90
ag568
ag367
ag569
ag125
ag500
ag570
ag92
ag571
ag255
ag307
ag572
ag70
ag573
ag574
ag575
ag436
atp969
Rp970
sS'werkzeug.wsgi.DispatcherMiddleware'
p971
g20
((lp972
g118
atp973
Rp974
sS'publish3.tools.vodrss'
p975
g20
((lp976
g694
atp977
Rp978
sS'publish3.Event.Event'
p979
g20
((lp980
g436
atp981
Rp982
sS'publish3.tools.vodsyndication.device_restrictions'
p983
g20
((lp984
g317
atp985
Rp986
sg120
g20
((lp987
g634
atp988
Rp989
sS'publish3.franchise.Franchise'
p990
g20
((lp991
g423
ag66
ag273
ag68
ag90
ag274
ag77
ag276
ag610
ag278
ag85
atp992
Rp993
sS'test.HTTP_Request.HTTPError'
p994
g20
((lp995
g550
atp996
Rp997
sg68
g20
((lp998
g216
atp999
Rp1000
sS'voluptuous.Invalid'
p1001
g20
((lp1002
g607
ag408
ag278
atp1003
Rp1004
sS'publish3.Metadata.Subtypes'
p1005
g20
((lp1006
g155
atp1007
Rp1008
sS'CMS.Snapshot'
p1009
g20
((lp1010
g338
atp1011
Rp1012
sS'metadata_transform.cablelabs.cablelabs_parser.CableParser'
p1013
g20
((lp1014
g283
ag689
atp1015
Rp1016
sS'publish3.Settings'
p1017
g20
((lp1018
g43
ag407
ag45
ag32
ag69
ag79
ag90
ag691
ag339
ag275
ag263
ag436
ag730
ag561
atp1019
Rp1020
sg247
g20
((lp1021
g37
ag569
ag155
atp1022
Rp1023
sS'publish3.ratings.max_mpaa_rating'
p1024
g20
((lp1025
g77
atp1026
Rp1027
sS'test.test_AssetFetch.ApplyModifications'
p1028
g20
((lp1029
g45
atp1030
Rp1031
sS'mnpy.Monitoring.ZENOSS_CRITICAL'
p1032
g20
((lp1033
g252
atp1034
Rp1035
sS'publish3.Metadata'
p1036
g20
((lp1037
g467
ag69
ag499
ag337
ag265
ag48
ag560
ag411
ag465
ag561
ag42
ag44
ag78
ag268
ag47
ag263
ag420
ag692
ag833
ag90
ag569
ag930
ag395
ag533
ag155
ag691
ag289
ag468
ag339
ag433
ag838
ag436
ag580
atp1038
Rp1039
sS'CMS.ORM.ORMObj'
p1040
g20
((lp1041
g233
atp1042
Rp1043
sS'webservice.common.headers'
p1044
g20
((lp1045
g609
ag607
ag288
ag608
ag226
ag68
ag274
ag77
ag666
ag264
ag610
ag611
ag612
ag278
ag613
ag440
atp1046
Rp1047
sS'voluptuous.Length'
p1048
g20
((lp1049
g76
ag607
ag122
ag278
ag73
ag101
ag74
ag127
ag128
atp1050
Rp1051
sS'test.async.wait_for_message_processing_to_complete'
p1052
g20
((lp1053
g412
atp1054
Rp1055
sS'publish3.PUtil.SendZenossEvent'
p1056
g20
((lp1057
g160
atp1058
Rp1059
sS'CMS.ORM.TEXT'
p1060
g20
((lp1061
g233
atp1062
Rp1063
sS'PIL.ImageFile'
p1064
g20
((lp1065
g126
atp1066
Rp1067
sS'publish3.Track.AssetTrack'
p1068
g20
((lp1069
g60
atp1070
Rp1071
sS'QIS.metadata.CopyAttr'
p1072
g20
((lp1073
g283
atp1074
Rp1075
sS'mnpy.RIMClient.RIMClientException'
p1076
g20
((lp1077
g678
atp1078
Rp1079
sS'CMS.ORM.select'
p1080
g20
((lp1081
g247
atp1082
Rp1083
sS'publish3.tools.vodsyndication.licensors'
p1084
g20
((lp1085
g317
atp1086
Rp1087
sS'publish3.Container'
p1088
g20
((lp1089
g69
ag477
ag546
ag833
ag561
ag42
ag79
ag337
ag173
ag420
ag478
ag43
aS'publish3.Event'
p1090
ag45
ag90
ag500
ag265
ag210
ag262
ag468
ag339
ag433
ag838
ag340
ag96
atp1091
Rp1092
sS'CMS.Events'
p1093
g20
((lp1094
g90
ag160
ag267
ag837
ag48
ag312
ag329
ag50
ag636
atp1095
Rp1096
sS'publish3.Container.Container'
p1097
g20
((lp1098
g420
atp1099
Rp1100
sS'CMS.CommonErrors.InvalidParametersError'
p1101
g20
((lp1102
g263
ag79
ag78
ag561
atp1103
Rp1104
sS'sqlalchemy.databases'
p1105
g20
((lp1106
g533
atp1107
Rp1108
sg928
g20
((lp1109
g421
atp1110
Rp1111
sS'publish3.traceback'
p1112
g20
((lp1113
g42
ag44
ag45
ag46
ag267
ag47
ag48
ag265
ag49
ag50
atp1114
Rp1115
sS'publish3.Asset.Asset'
p1116
g20
((lp1117
g273
ag328
ag275
ag264
ag73
ag74
ag602
ag75
ag563
ag895
ag82
ag240
ag137
ag420
ag247
aS'test.orm_proxy'
p1118
ag499
ag735
ag261
ag94
ag350
ag95
ag241
ag77
ag339
ag101
ag242
atp1119
Rp1120
sS'publish3.Common.OType'
p1121
g20
((lp1122
g407
ag32
ag267
ag337
ag477
ag48
ag560
ag833
ag49
ag50
ag336
ag42
ag44
ag78
ag79
ag47
ag175
ag263
ag137
ag420
ag69
ag43
ag692
ag1090
ag417
ag45
ag46
ag90
ag1118
ag569
ag60
ag265
aS'publish3.tools.vod_content_ops'
p1123
ag210
ag261
ag94
ag288
ag155
ag262
ag468
ag252
ag433
ag436
ag340
ag839
ag840
atp1124
Rp1125
sS'publish3.tools.xmlutil.sax2dom.Sax2DomChunker'
p1126
g20
((lp1127
g75
atp1128
Rp1129
sS'codecs.utf_8_decode'
p1130
g20
((lp1131
g312
atp1132
Rp1133
sS'publish3.MonitorPublisher.ZENOSS_CRITICAL'
p1134
g20
((lp1135
g267
atp1136
Rp1137
sS'CMS.DB.IndexExists'
p1138
g20
((lp1139
g160
atp1140
Rp1141
sg232
g20
((lp1142
g678
atp1143
Rp1144
sS'CMS.ORMLib.BigInteger'
p1145
g20
((lp1146
g155
atp1147
Rp1148
sS'CMS.ORM.Stream'
p1149
g20
((lp1150
g609
aS'test.wsapitest.streamtest'
p1151
ag80
ag682
ag70
ag98
ag100
ag264
aS'publish3.tools.adjust_stream'
p1152
atp1153
Rp1154
sS'Crypto.Random'
p1155
g20
((lp1156
g634
atp1157
Rp1158
sS'CMS.ORM.String'
p1159
g20
((lp1160
g233
atp1161
Rp1162
sS'os.path'
p1163
g20
((lp1164
S'CMS.upkey'
p1165
atp1166
Rp1167
sg611
g20
((lp1168
g216
atp1169
Rp1170
sS'CMS.Users.SUPER_USER_RIGHT'
p1171
g20
((lp1172
g923
atp1173
Rp1174
sS'mnpy.shuffle.deobfuscate'
p1175
g20
((lp1176
g635
atp1177
Rp1178
sS'sqlalchemy.sql.text'
p1179
g20
((lp1180
g569
atp1181
Rp1182
sS'newrelic.agent'
p1183
g20
((lp1184
g118
atp1185
Rp1186
sS'test.ChannelPageValidation.ValidateChannelCatalog'
p1187
g20
((lp1188
g45
atp1189
Rp1190
sS'publish3.Asset.CreateAssetFromFile'
p1191
g20
((lp1192
g94
ag550
atp1193
Rp1194
sS'QIS.metadata'
p1195
g20
((lp1196
g338
ag421
atp1197
Rp1198
sg22
g20
((lp1199
g86
ag117
ag1151
ag66
ag95
ag80
ag73
ag81
ag100
ag122
ag667
ag83
ag952
ag76
ag101
ag74
ag127
ag128
ag85
atp1200
Rp1201
sS'test.testconfiguration.TestConfiguration'
p1202
g20
((lp1203
g42
ag43
ag49
ag44
ag45
ag46
ag267
ag47
ag265
ag48
ag549
ag60
ag730
ag50
atp1204
Rp1205
sS'test.ChannelPageValidation.ValidateChannelEPG'
p1206
g20
((lp1207
g45
atp1208
Rp1209
sS'webservice.common.build_image'
p1210
g20
((lp1211
g77
ag68
atp1212
Rp1213
sS'publish3.source.get_event_class'
p1214
g20
((lp1215
g426
ag88
ag276
ag101
ag264
atp1216
Rp1217
sS'test.HTTP_Request.FetchBagFromURL'
p1218
g20
((lp1219
g42
ag43
ag412
ag45
ag46
ag548
ag267
ag47
ag84
ag549
ag546
ag265
ag44
ag50
ag550
atp1220
Rp1221
sS'publish3.tools.interactive.EmbedInteractiveConsole'
p1222
g20
((lp1223
g677
atp1224
Rp1225
sS'publish3.MediaViewIntegration'
p1226
g20
((lp1227
g406
atp1228
Rp1229
sS'publish3.tools.migration.channels'
p1230
g20
((lp1231
g479
ag480
atp1232
Rp1233
sg69
g20
((lp1234
g37
atp1235
Rp1236
sS'flup.server.fcgi.WSGIServer'
p1237
g20
((lp1238
g118
atp1239
Rp1240
sS'publish3.Common.Meta'
p1241
g20
((lp1242
g407
ag467
ag69
ag499
ag691
ag275
ag560
ag465
ag561
ag42
ag44
ag79
ag68
ag337
ag175
ag263
ag420
ag247
ag692
ag833
ag45
ag90
ag367
ag569
ag395
ag155
ag96
ag468
ag838
ag436
ag580
ag340
atp1243
Rp1244
sS'CMS.ORMLib.and_'
p1245
g20
((lp1246
g92
atp1247
Rp1248
sS'publish3.MonitorPublisher.ZENOSS_WARNING'
p1249
g20
((lp1250
g267
atp1251
Rp1252
sS'mechanize'
p1253
g20
((lp1254
g327
ag322
aS'publish3.qvtbench'
p1255
ag920
atp1256
Rp1257
sS'CMS.Util'
p1258
g20
((lp1259
g290
ag691
ag174
ag275
ag546
ag358
ag465
ag412
ag79
ag714
ag355
ag234
ag415
aS'CMS.fillqvt'
p1260
ag688
ag175
ag418
ag173
ag420
ag267
ag694
ag367
ag45
ag548
ag372
ag90
ag454
ag338
ag426
ag683
ag410
ag357
ag93
ag118
ag836
ag121
ag678
ag356
ag339
ag329
ag99
ag435
ag381
ag126
ag340
atp1261
Rp1262
sS'paramiko'
p1263
g20
((lp1264
g123
aS'CMS.SSH2'
p1265
atp1266
Rp1267
sS'webservice.common.qvt_headers'
p1268
g20
((lp1269
g77
atp1270
Rp1271
sS'datetime.date'
p1272
g20
((lp1273
g90
ag84
ag72
atp1274
Rp1275
sS'os.path.getsize'
p1276
g20
((lp1277
g322
atp1278
Rp1279
sS'dateutil.parser'
p1280
g20
((lp1281
g210
ag653
ag691
ag289
ag290
ag629
ag123
ag426
ag263
aS'publish3.tools.mediaview.consumer'
p1282
ag75
atp1283
Rp1284
sS'CMS.admin.Usage'
p1285
g20
((lp1286
g372
atp1287
Rp1288
sS'webservice.common.parse_datetime'
p1289
g20
((lp1290
g264
ag288
atp1291
Rp1292
sS'publish3.Asset.SearchBySourceAndTimeRange'
p1293
g20
((lp1294
g264
atp1295
Rp1296
sS'wsgi_intercept.requests_intercept'
p1297
g20
((lp1298
g22
atp1299
Rp1300
sS'cms.servicepartnerid.ServicePartnerId'
p1301
g20
((lp1302
g436
ag611
atp1303
Rp1304
sS'warnings'
p1305
g20
((lp1306
g65
ag533
ag22
atp1307
Rp1308
sS'CMS.Users'
p1309
g20
((lp1310
S'CMS.migrate'
p1311
ag407
ag678
ag372
ag174
ag329
ag263
ag340
ag421
aS'CMS.exportclips'
p1312
atp1313
Rp1314
sS'epgimport.epg.cms.CMS'
p1315
g20
((lp1316
S'epgimport.thermosepg'
p1317
atp1318
Rp1319
sS'publish3.source.Source'
p1320
g20
((lp1321
g66
ag407
ag32
ag69
aS'publish3.tools.migration.relaysources'
p1322
aS'publish3.tools.source.tms_prg_svc'
p1323
ag252
ag275
ag264
ag73
ag266
ag74
ag413
ag76
ag78
ag79
ag681
ag81
ag329
ag82
ag83
ag276
ag84
ag175
ag263
ag936
ag85
ag86
ag692
ag88
ag1151
ag89
ag70
ag90
ag436
ag71
ag126
ag94
ag340
ag288
ag95
ag262
ag241
ag97
ag440
ag99
ag100
ag682
ag422
ag415
ag101
ag565
ag96
ag102
atp1324
Rp1325
sS'sqlalchemy.create_engine'
p1326
g20
((lp1327
g112
atp1328
Rp1329
sS'CMS.Users._GetLastName'
p1330
g20
((lp1331
g372
atp1332
Rp1333
sS'CMS.Rights'
p1334
g20
((lp1335
g37
ag307
ag678
ag372
ag428
ag421
atp1336
Rp1337
sS'publish3.host_rules'
p1338
g20
((lp1339
g498
ag412
ag79
ag80
ag96
ag90
ag339
ag100
ag226
atp1340
Rp1341
sg288
g20
((lp1342
g216
atp1343
Rp1344
sS'publish3.tools.vodsyndication.assets'
p1345
g20
((lp1346
g317
atp1347
Rp1348
sS'CMS.StreamEdit'
p1349
g20
((lp1350
g263
atp1351
Rp1352
sg690
g20
((lp1353
g90
atp1354
Rp1355
sS'CMS.rimcore.RequireRights'
p1356
g20
((lp1357
g372
ag922
ag307
ag923
ag428
atp1358
Rp1359
sS'CMS.Session.AdminSession'
p1360
g20
((lp1361
g430
atp1362
Rp1363
sS'CMS.Util.ConvertToString'
p1364
g20
((lp1365
g367
ag482
atp1366
Rp1367
sS'publish3.PUtil.publishercontext'
p1368
g20
((lp1369
g241
atp1370
Rp1371
sS'webservice.common.verifyparam'
p1372
g20
((lp1373
g608
atp1374
Rp1375
sg37
g20
((lp1376
g262
atp1377
Rp1378
sS'mnpy.Monitoring.ZENOSS_WARNING'
p1379
g20
((lp1380
g252
atp1381
Rp1382
sS'publish3.DBTables.cms_blackouts'
p1383
g20
((lp1384
S'cms.blackout'
p1385
ag92
atp1386
Rp1387
sS'datetime'
p1388
g20
((lp1389
g653
ag119
ag406
ag407
ag408
ag267
ag920
ag499
ag395
ag48
ag275
ag695
ag560
ag266
ag933
ag1255
ag358
ag322
ag50
ag336
ag692
ag49
ag312
ag381
ag693
ag681
ag730
ag47
aS'epgimport.epg.thermos'
p1390
ag415
ag1260
ag175
ag263
ag137
ag290
ag421
ag247
ag874
ag409
ag411
ag45
ag46
ag367
ag1118
ag1311
ag241
ag1317
ag265
ag1282
ag126
ag636
ag533
ag839
ag340
ag931
ag288
ag289
ag160
ag262
ag432
ag252
ag629
ag123
ag433
aS'publish3.tools.securemedia'
p1391
ag795
ag927
aS'epgimport.thermos'
p1392
ag242
atp1393
Rp1394
sS'webservice.security.roles.ADMIN'
p1395
g20
((lp1396
g607
ag288
ag608
ag226
ag68
ag274
ag609
ag264
ag610
ag611
ag612
ag278
ag613
ag440
atp1397
Rp1398
sg666
g20
((lp1399
g216
atp1400
Rp1401
sS'webservice.common.build_links'
p1402
g20
((lp1403
g608
atp1404
Rp1405
sS'publish3.dynamic.domain'
p1406
g20
((lp1407
g921
atp1408
Rp1409
sS'publish3.source_event.get_source_events'
p1410
g20
((lp1411
g79
atp1412
Rp1413
sS'publish3.tools.b64aes'
p1414
g20
((lp1415
g357
atp1416
Rp1417
sS'publish3.PUtil.UpdateLastModifiedTimestamp'
p1418
g20
((lp1419
g499
atp1420
Rp1421
sg412
g20
((lp1422
S'test'
p1423
atp1424
Rp1425
sS'CMS.rimcore'
p1426
g20
((lp1427
g99
ag693
ag407
atp1428
Rp1429
sS'test.testenv.MICRO_SLEEP'
p1430
g20
((lp1431
g386
atp1432
Rp1433
sg274
g20
((lp1434
g216
atp1435
Rp1436
sS'test.orm_proxy.ORMProxy'
p1437
g20
((lp1438
g137
atp1439
Rp1440
sS'publish3.syndicationmessagehandlers'
p1441
g20
((lp1442
g338
atp1443
Rp1444
sS'IPython.frontend.terminal.ipapp.TerminalIPythonApp'
p1445
g20
((lp1446
g55
atp1447
Rp1448
sg607
g20
((lp1449
g216
atp1450
Rp1451
sS'publish3.BigKey'
p1452
g20
((lp1453
g247
atp1454
Rp1455
sS'publish3.ratings.set_asset_rating'
p1456
g20
((lp1457
g264
ag288
atp1458
Rp1459
sS'publish3.MiscProduct'
p1460
g20
((lp1461
g69
atp1462
Rp1463
sS'sqlalchemy.databases.postgres.PGInet'
p1464
g20
((lp1465
g307
atp1466
Rp1467
sS'publish3.Template'
p1468
g20
((lp1469
g43
ag44
ag407
ag45
ag69
ag572
ag561
atp1470
Rp1471
sS'sqlalchemy.exceptions'
p1472
g20
((lp1473
g533
atp1474
Rp1475
sS'CMS.ORM.SourceStation'
p1476
g20
((lp1477
g76
ag100
ag264
ag92
ag440
atp1478
Rp1479
sS'mnpy.FTPUploader'
p1480
g20
((lp1481
g593
ag920
atp1482
Rp1483
sS'publish3.Upgrades'
p1484
g20
((lp1485
S'test.dependencies'
p1486
ag37
ag412
atp1487
Rp1488
sS'webservice.common.seconds_since_epoch'
p1489
g20
((lp1490
g68
atp1491
Rp1492
sS'publish3.DateTimeUtil.parseISOdatetime'
p1493
g20
((lp1494
g93
atp1495
Rp1496
sS'publish3.PUtil.SanitizeList'
p1497
g20
((lp1498
g335
atp1499
Rp1500
sS'test.ChannelPageValidation.ValidateChannelsEPG'
p1501
g20
((lp1502
g45
atp1503
Rp1504
sg77
g20
((lp1505
g216
atp1506
Rp1507
sS'IPython.frontend.terminal.ipapp.TerminalInteractiveShell'
p1508
g20
((lp1509
g55
atp1510
Rp1511
sS'CMS.rim.Add'
p1512
g20
((lp1513
g124
atp1514
Rp1515
sS'CMS.ORM.tms_postal_map_entries'
p1516
g20
((lp1517
g936
atp1518
Rp1519
sS'publish3.Entitlement.Entitlement'
p1520
g20
((lp1521
g350
ag68
ag90
ag1118
ag328
ag77
ag75
ag276
ag499
ag137
ag74
ag689
ag242
atp1522
Rp1523
sS'publish3.tools.random_words'
p1524
g20
((lp1525
g840
ag336
atp1526
Rp1527
sS'sqlalchemy.exc.ProgrammingError'
p1528
g20
((lp1529
g48
atp1530
Rp1531
sS'CMS.rimcore.ValidateUsername'
p1532
g20
((lp1533
g372
atp1534
Rp1535
sS'voluptuous.IsFalse'
p1536
g20
((lp1537
g100
atp1538
Rp1539
sS'CMS.ORM.BagType'
p1540
g20
((lp1541
g233
atp1542
Rp1543
sS'publish3.Common.AdConstraints'
p1544
g20
((lp1545
g155
atp1546
Rp1547
sS'publish3.Upgrades.InstallPub3SQL'
p1548
g20
((lp1549
g155
atp1550
Rp1551
sS'publish3.Folder'
p1552
g20
((lp1553
g42
ag340
ag44
ag836
ag407
ag45
ag69
ag47
ag840
ag426
ag478
ag833
ag173
ag49
ag572
ag290
ag835
atp1554
Rp1555
sS'publish3.playback_info.get_fresh_yaya_module'
p1556
g20
((lp1557
g100
ag795
atp1558
Rp1559
sg681
g20
((lp1560
g837
ag421
atp1561
Rp1562
sS'publish3.Domain'
p1563
g20
((lp1564
g42
ag210
ag480
ag407
ag155
ag45
ag69
ag838
ag84
ag175
ag265
ag358
ag482
ag921
atp1565
Rp1566
sg792
g20
((lp1567
g42
ag412
ag407
ag548
ag267
ag327
atp1568
Rp1569
sS'mnpy.mediainfo.GetMediaInfo'
p1570
g20
((lp1571
g322
atp1572
Rp1573
sS'test.async.sleep'
p1574
g20
((lp1575
g42
ag94
ag412
ag350
ag45
ag46
ag329
ag267
ag327
ag47
ag328
ag71
ag48
ag265
ag137
ag49
ag330
atp1576
Rp1577
sS'sqlalchemy.Sequence'
p1578
g20
((lp1579
g263
atp1580
Rp1581
sS'CMS.rimcore.RIMRIGHTS'
p1582
g20
((lp1583
g372
ag922
ag407
atp1584
Rp1585
sS'test.async.SMALL_SLEEP'
p1586
g20
((lp1587
g45
ag46
ag267
ag47
ag71
ag48
ag265
ag330
atp1588
Rp1589
sS'CMS.globalconfig'
p1590
g20
((lp1591
g65
ag409
ag454
ag381
ag112
ag410
atp1592
Rp1593
sS'CMS.ORM.BASE_COLUMNS'
p1594
g20
((lp1595
g233
atp1596
Rp1597
sS'CMS.Cache'
p1598
g20
((lp1599
g275
ag252
atp1600
Rp1601
sS'publish3.pseudo_series'
p1602
g20
((lp1603
g79
atp1604
Rp1605
sS'publish3.MiscProduct.MiscProduct'
p1606
g20
((lp1607
g137
ag275
ag1118
atp1608
Rp1609
sS'CMS.CommonErrors.UnauthorizedError'
p1610
g20
((lp1611
g210
ag96
ag175
atp1612
Rp1613
sS'CMS.CMSWSGIHandler'
p1614
g20
((lp1615
g22
atp1616
Rp1617
sS'mnpy.Monitoring.ZENOSS_ERROR'
p1618
g20
((lp1619
g252
atp1620
Rp1621
sS'publish3.Asset.LinkedAsset'
p1622
g20
((lp1623
g350
ag550
ag328
atp1624
Rp1625
sS'CMS.ukconfig'
p1626
g20
((lp1627
g1165
atp1628
Rp1629
sS'requests'
p1630
g20
((lp1631
g66
aS'devtools.fakelive_spammer'
p1632
ag265
ag667
ag72
ag73
ag74
ag386
ag75
ag937
ag412
ag81
ag602
ag263
ag419
ag636
ag85
ag832
ag682
ag90
ag834
ag695
ag345
aS'epgimport.epg.cms'
p1633
ag289
aS'publish3.tools.checksyndication'
p1634
ag22
ag629
ag100
ag940
ag926
ag126
aS'publish3.tools.checklatency'
p1635
ag102
atp1636
Rp1637
sS'webservice.wsutil.get_object'
p1638
g20
((lp1639
g288
ag68
ag274
ag264
ag610
ag607
ag278
atp1640
Rp1641
sS'test.testenv.SMALL_SLEEP'
p1642
g20
((lp1643
g386
atp1644
Rp1645
sS'sqlalchemy.sql'
p1646
g20
((lp1647
g307
atp1648
Rp1649
sS'CMS.CommonErrors.NotFoundError'
p1650
g20
((lp1651
g210
ag533
ag118
ag78
ag481
ag79
ag357
ag96
ag355
ag356
ag174
ag275
ag834
ag175
ag263
ag173
ag288
ag420
ag69
ag565
atp1652
Rp1653
sS'sqlalchemy.types.Integer'
p1654
g20
((lp1655
g307
atp1656
Rp1657
sS'publish3.DBTables.cms_ad_markers'
p1658
g20
((lp1659
g92
atp1660
Rp1661
sg560
g20
((lp1662
g691
ag69
ag340
ag90
ag569
atp1663
Rp1664
sS'CMS.rimcore.Login'
p1665
g20
((lp1666
g935
atp1667
Rp1668
sS'oauth2'
p1669
g20
((lp1670
g312
atp1671
Rp1672
sS'publish3.SubscriptionPack'
p1673
g20
((lp1674
g42
ag479
ag102
ag66
ag45
ag267
ag482
ag81
ag97
ag337
ag356
ag83
ag838
ag265
ag480
ag49
ag572
ag69
ag85
atp1675
Rp1676
sS'CMS.QMXReader.QMXStreamletReader'
p1677
g20
((lp1678
g419
ag126
atp1679
Rp1680
sS'test.wsapitest.common.u'
p1681
g20
((lp1682
g127
ag122
atp1683
Rp1684
sS'kombu.common.maybe_declare'
p1685
g20
((lp1686
g338
atp1687
Rp1688
sg234
g20
((lp1689
g99
atp1690
Rp1691
sS'test.wsapitest.cmswebservice.CMSWebService'
p1692
g20
((lp1693
g102
atp1694
Rp1695
sS'PyRSS2Gen'
p1696
g20
((lp1697
g411
atp1698
Rp1699
sS'CMS.publishercontext.GetPubID'
p1700
g20
((lp1701
g160
ag100
atp1702
Rp1703
sS'SD.ArchiveJob.RangeToSN'
p1704
g20
((lp1705
g422
atp1706
Rp1707
sS'flask.ext.restful'
p1708
g20
((lp1709
g226
ag227
aS'webservice.cmsapp'
p1710
atp1711
Rp1712
sS'CMS.DB.HasColumn'
p1713
g20
((lp1714
g160
atp1715
Rp1716
sS'test.test_AssetFetch.ApplyAttributeAndMDMods'
p1717
g20
((lp1718
g45
atp1719
Rp1720
sS'termios'
p1721
g20
((lp1722
g482
atp1723
Rp1724
sS'publish3.tools.inputhelper.Menu'
p1725
g20
((lp1726
g498
ag197
atp1727
Rp1728
sS'pytz'
p1729
g20
((lp1730
g927
ag572
atp1731
Rp1732
sS'Crypto.PublicKey.RSA'
p1733
g20
((lp1734
g395
ag355
ag312
atp1735
Rp1736
sS'CMS.ORM.DB'
p1737
g20
((lp1738
g602
ag82
atp1739
Rp1740
sS'Streamlets.qmxlib'
p1741
g20
((lp1742
g121
ag232
ag920
ag938
ag415
ag636
atp1743
Rp1744
sS'publish3.tools.readstatic'
p1745
g20
((lp1746
g89
atp1747
Rp1748
sS'publish3.Channel.Channel'
p1749
g20
((lp1750
g68
ag1323
ag241
ag77
ag276
ag436
ag611
ag565
atp1751
Rp1752
sS'QIS.Common'
p1753
g20
((lp1754
g232
ag47
ag421
atp1755
Rp1756
sS'isodate.isoduration.parse_duration'
p1757
g20
((lp1758
g89
ag408
atp1759
Rp1760
sS'publish3.pseudo_series.find_and_hydrate'
p1761
g20
((lp1762
g81
atp1763
Rp1764
sS'mnpy.RIMClient'
p1765
g20
((lp1766
g142
ag1322
atp1767
Rp1768
sS'publish3.MonitorPublisher.ZENOSS_ERROR'
p1769
g20
((lp1770
g267
atp1771
Rp1772
sS'publish3.MVNetwork'
p1773
g20
((lp1774
g653
atp1775
Rp1776
sg386
g20
((lp1777
g1423
atp1778
Rp1779
sg874
g20
((lp1780
g99
ag329
atp1781
Rp1782
sS'publish3.Common.Search'
p1783
g20
((lp1784
g90
ag436
ag69
ag468
ag44
atp1785
Rp1786
sS'publish3.SourceSet'
p1787
g20
((lp1788
g45
ag1323
ag262
ag90
ag47
ag69
ag48
ag688
ag340
ag267
atp1789
Rp1790
sS'CMS.Session.Session'
p1791
g20
((lp1792
g227
ag430
atp1793
Rp1794
sS'CMS.aeswrap'
p1795
g20
((lp1796
g118
ag421
ag107
atp1797
Rp1798
sS'publish3.thermaview.ThermaView'
p1799
g20
((lp1800
g69
atp1801
Rp1802
sS'CMS.Util.NoSuchJunctionError'
p1803
g20
((lp1804
g160
atp1805
Rp1806
sS'test.FolderPageValidation.ValidateFolderListing'
p1807
g20
((lp1808
g45
atp1809
Rp1810
sg612
g20
((lp1811
g216
atp1812
Rp1813
sS'test.garbage_collector.GarbageCollector'
p1814
g20
((lp1815
g43
ag44
ag45
ag267
ag47
ag48
ag50
atp1816
Rp1817
sS'CMS.ORMLib.UUID'
p1818
g20
((lp1819
g155
atp1820
Rp1821
sS'publish3.Syndication'
p1822
g20
((lp1823
g426
ag50
ag93
atp1824
Rp1825
sS'CMS.Settings'
p1826
g20
((lp1827
g395
ag99
ag372
ag874
atp1828
Rp1829
sg409
g20
((lp1830
g697
atp1831
Rp1832
sS'sqlalchemy.text'
p1833
g20
((lp1834
g602
atp1835
Rp1836
sS'QIS.Encode.Encode'
p1837
g20
((lp1838
g90
atp1839
Rp1840
sS'publish3.EncryptionGroup'
p1841
g20
((lp1842
g357
ag276
ag99
atp1843
Rp1844
sS'QIS.Common.State'
p1845
g20
((lp1846
g90
ag160
ag232
ag837
ag928
ag677
atp1847
Rp1848
sS'publish3.team.Team'
p1849
g20
((lp1850
g273
ag90
ag122
ag274
ag276
ag73
ag607
ag127
atp1851
Rp1852
sS'mnpy.defaultlogging'
p1853
g20
((lp1854
g431
ag410
ag454
atp1855
Rp1856
sS'CMS.DonLib.DonConfig'
p1857
g20
((lp1858
g437
atp1859
Rp1860
sS'nose.plugins.attrib.attr'
p1861
g20
((lp1862
g44
ag45
ag267
ag47
ag48
ag265
ag50
atp1863
Rp1864
sS'CMS.QMXReader'
p1865
g20
((lp1866
g832
aS'CMS.qmximport'
p1867
ag1311
ag407
ag289
ag160
ag840
ag90
ag338
ag99
ag874
ag1260
ag417
ag121
ag126
ag839
ag232
ag835
atp1868
Rp1869
sg696
g20
((lp1870
g421
atp1871
Rp1872
sg1710
g20
((lp1873
g22
ag118
atp1874
Rp1875
sS'test.qis_metadata_test.capture_metadata'
p1876
g20
((lp1877
g261
ag895
atp1878
Rp1879
sS'voluptuous.Optional'
p1880
g20
((lp1881
g76
ag95
ag122
ag73
ag101
ag74
ag127
ag128
atp1882
Rp1883
sg837
g20
((lp1884
g421
atp1885
Rp1886
sS'publish3.ratings.find_closest'
p1887
g20
((lp1888
g925
atp1889
Rp1890
sS'publish3.EncryptionGroup.EncryptionGroup'
p1891
g20
((lp1892
g92
ag565
atp1893
Rp1894
sS'voluptuous.All'
p1895
g20
((lp1896
g76
ag607
ag122
ag278
ag73
ag101
ag74
ag127
ag128
atp1897
Rp1898
sS'publish3.Common.AssetState'
p1899
g20
((lp1900
g42
ag261
ag94
ag44
ag43
ag407
ag45
ag267
ag90
ag47
ag1118
ag691
ag395
ag48
ag264
ag73
ag265
ag74
ag411
ag690
ag288
atp1901
Rp1902
sS'datetime.datetime'
p1903
g20
((lp1904
g67
ag69
ag264
ag70
ag71
ag72
ag73
ag74
ag77
ag79
ag80
ag68
ag82
ag414
ag83
ag84
ag419
ag420
ag565
ag86
ag87
ag88
ag89
ag283
ag90
ag426
ag91
ag92
ag689
ag210
ag94
ag307
ag95
ag96
ag97
ag93
ag98
ag100
ag101
ag736
ag102
atp1905
Rp1906
sS'CMS.DB.BaseQuery'
p1907
g20
((lp1908
g568
ag1123
ag90
atp1909
Rp1910
sS'test.test_AssetFetch.SimplePurge'
p1911
g20
((lp1912
g42
ag45
atp1913
Rp1914
sS'test.global_data.init_including_channel'
p1915
g20
((lp1916
g42
ag49
ag46
ag80
ag265
ag549
ag60
ag730
ag50
atp1917
Rp1918
sS'publish3.MVFranchise'
p1919
g20
((lp1920
g653
atp1921
Rp1922
sS'webservice.cmsapp.cmsapi'
p1923
g20
((lp1924
g609
ag607
ag288
ag608
ag68
ag226
ag264
ag274
ag77
ag666
ag613
ag610
ag611
ag612
ag278
ag93
ag440
atp1925
Rp1926
sS'setuptools.find_packages'
p1927
g20
((lp1928
g790
atp1929
Rp1930
sg124
g20
((lp1931
g174
atp1932
Rp1933
sS'isodate'
p1934
g20
((lp1935
g67
ag925
ag1710
ag95
ag289
ag69
ag90
ag629
ag609
ag99
ag72
ag73
ag74
ag927
ag226
ag93
ag288
atp1936
Rp1937
sS'Crypto.Cipher.ARC2'
p1938
g20
((lp1939
g120
atp1940
Rp1941
sS'sqlalchemy.exc.IntegrityError'
p1942
g20
((lp1943
g42
ag666
ag88
ag69
atp1944
Rp1945
sS'publish3.PUtil.Pickle'
p1946
g20
((lp1947
g395
atp1948
Rp1949
sS'test.dependencies'
p1950
g20
((lp1951
g412
atp1952
Rp1953
sS'publish3.Track.TrackMD'
p1954
g20
((lp1955
g580
atp1956
Rp1957
sS'publish3.Schedule.Schedule'
p1958
g20
((lp1959
g77
ag339
ag96
ag68
atp1960
Rp1961
sS'publish3.tools.vodsyndication.folder'
p1962
g20
((lp1963
g317
atp1964
Rp1965
sS'voluptuous.MultipleInvalid'
p1966
g20
((lp1967
g607
ag408
ag278
atp1968
Rp1969
sS'kombu.Queue'
p1970
g20
((lp1971
g338
atp1972
Rp1973
sS'webservice.cmsapp.app'
p1974
g20
((lp1975
g227
ag412
atp1976
Rp1977
sS'publish3.tools.mediaview.franchise.FranchiseChunker'
p1978
g20
((lp1979
g735
atp1980
Rp1981
sS'voluptuous.IsTrue'
p1982
g20
((lp1983
g100
atp1984
Rp1985
sg421
g20
((lp1986
g338
atp1987
Rp1988
sS'datetime.time'
p1989
g20
((lp1990
g71
ag84
atp1991
Rp1992
sS'SD.JobQClient.JobQClient'
p1993
g20
((lp1994
g413
atp1995
Rp1996
sg372
g20
((lp1997
g99
ag678
atp1998
Rp1999
sS'CMS.publishercontext.GetPathPrepend'
p2000
g20
((lp2001
g262
atp2002
Rp2003
sg609
g20
((lp2004
g216
atp2005
Rp2006
sS'CMS.DB'
p2007
g20
((lp2008
g66
ag667
ag275
ag192
ag412
ag81
ag329
ag413
ag83
ag85
ag65
ag283
ag695
ag233
ag92
ag155
ag307
ag97
ag99
ag100
ag436
ag126
ag102
atp2009
Rp2010
sg500
g20
((lp2011
g436
ag290
ag357
ag478
atp2012
Rp2013
sg853
g20
((lp2014
g634
atp2015
Rp2016
sS'sqlalchemy.Column'
p2017
g20
((lp2018
g307
atp2019
Rp2020
sS'CMS.ORM.Integer'
p2021
g20
((lp2022
g233
atp2023
Rp2024
sS'webservice.wsutil.delete_object'
p2025
g20
((lp2026
g610
ag607
ag68
ag278
atp2027
Rp2028
sS'publish3.Common.Rights'
p2029
g20
((lp2030
g37
atp2031
Rp2032
sS'mnpy.Monitoring.CreateZenossMessage'
p2033
g20
((lp2034
g252
atp2035
Rp2036
sS'CMS.DonLib'
p2037
g20
((lp2038
g118
ag160
ag413
ag928
ag99
ag112
ag415
ag435
ag1265
ag693
ag421
ag422
atp2039
Rp2040
sS'CMS.ORM.EPGVendor'
p2041
g20
((lp2042
g76
ag100
ag128
ag613
ag264
atp2043
Rp2044
sg424
g20
((lp2045
g234
atp2046
Rp2047
sS'publish3.Metadata.MDKey'
p2048
g20
((lp2049
g247
ag283
ag155
ag602
atp2050
Rp2051
sS'test.qis_video_test.create_video'
p2052
g20
((lp2053
g350
atp2054
Rp2055
sS'CMS.rimcore.ForceArg'
p2056
g20
((lp2057
g428
atp2058
Rp2059
sS'CMS.ORM'
p2060
g20
((lp2061
g405
ag71
ag677
ag266
ag412
ag678
ag1486
ag276
ag689
ag803
ag421
ag45
ag372
ag90
ag569
ag395
aS'CMS.migrateurls'
p2062
ag307
ag262
ag252
ag422
ag415
ag580
ag340
ag839
aS'CMS.reparatum'
p2063
ag416
ag1311
ag407
ag559
ag408
ag174
ag275
ag49
ag50
ag42
ag44
ag1312
ag952
ag681
ag337
ag413
ag414
ag417
ag420
ag330
ag832
ag833
ag55
ag367
ag426
ag118
ag429
ag160
ag329
ag435
ag436
ag1867
ag570
ag467
ag267
ag499
ag928
ag560
ag465
ag561
ag79
ag232
ag89
ag84
ag263
ag137
ag840
ag265
ag835
ag155
ag432
ag339
ag433
aS'CMS.getDrmKey'
p2064
ag96
ag932
ag335
ag69
ag48
ag692
ag411
ag78
ag47
ag565
ag65
ag874
ag409
ag46
ag418
ag428
aS'CMS.Rights'
p2065
ag636
ag533
ag94
ag836
ag289
ag121
ag690
ag468
ag837
ag70
ag312
ag99
ag838
atp2066
Rp2067
sS'CMS.DonLib.PostEvent'
p2068
g20
((lp2069
S'CMS.Events'
p2070
atp2071
Rp2072
sS'publish3.pseudo_series.PseudoSeries'
p2073
g20
((lp2074
g666
ag81
atp2075
Rp2076
sS'CMS.ORM.Column'
p2077
g20
((lp2078
g233
atp2079
Rp2080
sS'CMS.CommonErrors.ConstraintViolationError'
p2081
g20
((lp2082
g78
atp2083
Rp2084
sS'test.HTTP_Request.WaitForEvents'
p2085
g20
((lp2086
g44
ag45
ag267
ag48
ag549
ag265
atp2087
Rp2088
sS'voluptuous.Any'
p2089
g20
((lp2090
g76
ag100
ag278
ag667
ag73
ag101
ag74
ag127
ag128
atp2091
Rp2092
sS'mnpy.PasswordUtil.checkHash'
p2093
g20
((lp2094
g418
atp2095
Rp2096
sS'sqlalchemy.or_'
p2097
g20
((lp2098
g82
atp2099
Rp2100
sS'webservice.common.verifylistparam'
p2101
g20
((lp2102
g608
atp2103
Rp2104
sS'publish3.Common.VOD'
p2105
g20
((lp2106
g261
ag155
atp2107
Rp2108
sS'CMS.ORMLib.ORMObjMeta'
p2109
g20
((lp2110
g273
ag499
ag275
ag560
ag566
ag465
ag277
ag561
ag562
ag563
ag78
ag564
ag337
ag936
ag420
ag423
ag255
ag567
ag90
ag568
ag367
ag569
ag125
ag500
ag570
ag92
ag571
ag307
ag572
ag70
ag573
ag574
ag575
ag436
atp2111
Rp2112
sS'publish3.tools.mediaview.sax2dom.Sax2DomChunker'
p2113
g20
((lp2114
g736
atp2115
Rp2116
sS'publish3.ratings.ALL_RATINGS'
p2117
g20
((lp2118
g274
ag925
ag264
atp2119
Rp2120
sS'publish3.dynamic.channel'
p2121
g20
((lp2122
g921
atp2123
Rp2124
sS'attrdict'
p2125
g20
((lp2126
g789
ag790
ag791
ag793
ag794
ag796
atp2127
Rp2128
sS'requests.exceptions.HTTPError'
p2129
g20
((lp2130
g1390
atp2131
Rp2132
sS'CMS.CommonErrors.InvalidRequestError'
p2133
g20
((lp2134
g210
ag355
ag356
ag175
ag263
ag173
ag357
atp2135
Rp2136
sS'publish3.SubscriptionPack.SubscriptionPack'
p2137
g20
((lp2138
g137
ag275
ag84
ag1118
atp2139
Rp2140
sS'mnpy.jsonlib'
p2141
g20
((lp2142
g874
ag1255
ag1311
ag267
ag329
ag327
ag1260
ag322
ag330
ag1312
atp2143
Rp2144
sS'publish3.tms_prg_service.TMSPostalMapEntry'
p2145
g20
((lp2146
g175
atp2147
Rp2148
sS'sqlalchemy.select'
p2149
g20
((lp2150
g339
ag420
ag499
ag602
atp2151
Rp2152
sS'publish3.tools.vodsyndication.links'
p2153
g20
((lp2154
g317
atp2155
Rp2156
sg593
g20
((lp2157
g329
ag415
ag435
ag232
atp2158
Rp2159
sS'publish3.pseudo_series.find_pseudoseries'
p2160
g20
((lp2161
g81
atp2162
Rp2163
sS'epgimport.epg.thermos.Thermos'
p2164
g20
((lp2165
g1392
ag1317
atp2166
Rp2167
sS'QIS.Encode'
p2168
g20
((lp2169
g407
ag690
ag837
ag47
ag338
ag677
ag265
ag232
ag421
atp2170
Rp2171
sS'mnpy.Bag.JSONEncode'
p2172
g20
((lp2173
g210
ag714
ag355
ag356
ag691
ag683
ag688
ag175
ag173
ag340
ag357
ag358
atp2174
Rp2175
sg278
g20
((lp2176
g216
atp2177
Rp2178
sS'events.messages.register_message_handler'
p2179
g20
((lp2180
g72
atp2181
Rp2182
sS'setuptools.setup'
p2183
g20
((lp2184
g790
atp2185
Rp2186
sS'os'
p2187
g20
((lp2188
g405
ag1255
ag406
ag1322
ag666
ag677
ag410
ag412
ag789
ag81
ag803
ag90
ag395
aS'Streamlets.QSS'
p2189
ag381
ag124
ag422
ag415
ag580
ag839
ag482
ag1311
ag407
ag432
ag328
ag635
ag174
ag120
ag123
ag142
ag792
ag1260
ag417
aS'test.pythondependencytest'
p2190
ag924
ag55
aS'wscript'
p2191
ag593
ag126
ag345
ag261
ag118
ag160
ag329
ag435
ag796
ag467
ag267
aS'update_ui'
p2192
ag477
ag72
ag119
ag895
ag234
ag89
ag263
aS'devtools.cablelabs_test'
p2193
ag425
ag265
aS'CMS.pubIDs'
p2194
ag689
ag634
ag931
ag350
ag790
ag408
ag680
ag433
ag932
ag66
ag840
ag75
ag322
ag233
ag934
aS'CMS.aeswrap'
p2195
ag419
ag85
ag409
aS'ruready'
p2196
ag46
ag283
ag791
ag454
ag793
ag533
ag696
ag121
ag96
ag837
ag312
ag99
ag794
atp2197
Rp2198
sS'SD.ArchiveJob.ArchiveJob'
p2199
g20
((lp2200
g422
ag413
atp2201
Rp2202
sS'CMS.package_config'
p2203
g20
((lp2204
g312
atp2205
Rp2206
sg608
g20
((lp2207
g216
atp2208
Rp2209
sS'kombu.Connection'
p2210
g20
((lp2211
g338
atp2212
Rp2213
sS'CMS.WSGIApp.WSGIApp'
p2214
g20
((lp2215
g118
atp2216
Rp2217
sS'publish3.PricingModel'
p2218
g20
((lp2219
g289
ag69
ag97
ag100
ag83
ag689
ag102
atp2220
Rp2221
sS'sqlalchemy.types.DateTime'
p2222
g20
((lp2223
g307
atp2224
Rp2225
sS'sqlalchemy.and_'
p2226
g20
((lp2227
g90
ag499
ag339
ag72
ag420
ag427
atp2228
Rp2229
sS'publish3.search'
p2230
g20
((lp2231
g608
atp2232
Rp2233
sS'publish3.device_restrictions.DeviceRestrictions'
p2234
g20
((lp2235
g937
ag275
ag564
ag197
atp2236
Rp2237
sg923
g20
((lp2238
g678
atp2239
Rp2240
sS'publish3.Common.AType'
p2241
g20
((lp2242
g261
ag94
ag395
ag44
ag288
ag155
ag45
ag840
ag468
ag90
ag47
ag263
ag48
ag417
ag265
ag411
ag839
ag932
atp2243
Rp2244
sS'publish3.licensor'
p2245
g20
((lp2246
g69
ag426
atp2247
Rp2248
sS'publish3.PUtil.GetOrderedObjects'
p2249
g20
((lp2250
g335
atp2251
Rp2252
sS'publish3.Common.ScheduleType'
p2253
g20
((lp2254
g288
ag155
ag90
ag264
ag395
ag78
atp2255
Rp2256
sS'publish3.Common.PseudoContainers'
p2257
g20
((lp2258
g691
ag69
ag49
ag340
ag78
atp2259
Rp2260
sS'publish3.PUtil'
p2261
g20
((lp2262
g480
ag602
ag653
ag66
ag407
ag32
ag408
ag267
ag1322
ag934
ag265
ag48
ag275
ag560
ag266
ag417
ag119
ag358
ag49
ag50
ag561
ag692
ag730
ag44
ag78
ag79
ag80
ag81
ag47
ag312
ag82
ag337
ag83
ag276
ag84
ag175
ag355
ag173
ag268
ag572
ag69
ag93
ag85
ag479
ag88
ag411
ag925
ag45
ag46
ag90
ag367
ag425
ag426
ag683
ag212
ag71
ag357
ag689
ag210
ag839
ag340
ag931
ag691
ag289
ag420
ag96
ag533
ag432
ag97
ag123
ag356
ag339
ag100
ag433
ag290
ag2193
ag436
ag101
ag565
ag688
ag690
ag102
atp2263
Rp2264
sS'mnpy.daemonlib'
p2265
g20
((lp2266
g322
atp2267
Rp2268
sS'publish3.PricingModel.PricingModel'
p2269
g20
((lp2270
g350
ag90
ag1118
ag328
ag275
ag137
ag75
atp2271
Rp2272
sS'sqlalchemy'
p2273
g20
((lp2274
g381
ag409
atp2275
Rp2276
sS'os.path.splitext'
p2277
g20
((lp2278
g925
atp2279
Rp2280
sS'simplejson'
p2281
g20
((lp2282
g252
ag307
atp2283
Rp2284
sS'mnpy.PasswordUtil'
p2285
g20
((lp2286
g430
atp2287
Rp2288
sS'isodate.isodatetime'
p2289
g20
((lp2290
g350
atp2291
Rp2292
sS'publish3.tools.loadmeta'
p2293
g20
((lp2294
g265
ag267
ag407
atp2295
Rp2296
sS'test.FolderPageValidation.ValidateFolderCatalog'
p2297
g20
((lp2298
g45
atp2299
Rp2300
sS'test.HTTP_Request.VerifyAssetPopulation'
p2301
g20
((lp2302
g45
ag267
ag47
ag48
ag265
ag50
atp2303
Rp2304
sS'CMS.ORM.tms_prg_services'
p2305
g20
((lp2306
g936
atp2307
Rp2308
sS'publish3.tms_prg_service.TMSPrgService'
p2309
g20
((lp2310
g92
ag1323
ag69
ag175
atp2311
Rp2312
sS'webservice.security.session.verify_logged_in'
p2313
g20
((lp2314
g225
atp2315
Rp2316
sS'test.test_Metadata.ST_EstablishMDKey'
p2317
g20
((lp2318
g45
atp2319
Rp2320
sS'CMS.transaction.transaction'
p2321
g20
((lp2322
g1867
ag1311
ag335
ag267
ag499
ag47
ag265
ag48
ag677
ag695
ag560
ag266
ag50
ag561
ag692
ag562
ag121
ag44
ag78
ag79
ag465
ag337
ag413
ag414
ag415
ag467
ag263
ag336
ag420
ag69
ag478
ag874
ag423
ag45
ag46
ag90
ag70
ag367
ag569
ag636
ag395
ag92
ag2062
ag118
ag155
ag160
ag468
ag837
ag252
ag312
ag339
ag329
ag99
ag435
ag174
ag1152
ag436
ag126
ag840
ag242
atp2323
Rp2324
sS'publish3.tools.vodsyndication.celebrities'
p2325
g20
((lp2326
g317
atp2327
Rp2328
sg268
g20
((lp2329
g37
atp2330
Rp2331
sS'publish3.tools.readechostar'
p2332
g20
((lp2333
g265
atp2334
Rp2335
sS'SD.JobQClient'
p2336
g20
((lp2337
g99
atp2338
Rp2339
sS'publish3.licensor.Licensor'
p2340
g20
((lp2341
g288
ag155
ag275
ag276
ag197
ag926
ag75
atp2342
Rp2343
sS'CMS.rim.BadRequestError'
p2344
g20
((lp2345
g925
atp2346
Rp2347
sS'kombu.Exchange'
p2348
g20
((lp2349
g338
atp2350
Rp2351
sS'requests_oauthlib.OAuth1Session'
p2352
g20
((lp2353
g1282
ag1390
atp2354
Rp2355
sS'release_version'
p2356
g20
((lp2357
g2191
atp2358
Rp2359
sS'voluptuous.Schema'
p2360
g20
((lp2361
g76
ag607
ag66
ag95
ag80
ag81
ag100
ag122
ag278
ag667
ag73
ag408
ag101
ag74
ag127
ag128
ag85
atp2362
Rp2363
sS'publish3.source_event.SourceEvent'
p2364
g20
((lp2365
g96
ag276
atp2366
Rp2367
sS'publish3.Lifecycle'
p2368
g20
((lp2369
g42
ag37
ag1322
ag412
ag45
ag46
ag69
ag559
ag338
ag48
atp2370
Rp2371
sS'SD.JobQ'
p2372
g20
((lp2373
g939
ag413
ag415
ag422
aS'SD'
p2374
ag435
atp2375
Rp2376
sS'sqlalchemy.types.UnicodeText'
p2377
g20
((lp2378
g307
atp2379
Rp2380
sS'test.publisher.clear_publisher'
p2381
g20
((lp2382
g66
ag48
ag73
ag74
ag952
ag76
ag45
ag81
ag47
ag89
ag85
ag86
ag1151
ag117
ag46
ag71
ag127
ag345
ag261
ag94
ag350
ag95
ag262
ag122
ag128
atp2383
Rp2384
sS'publish3.AdiParser'
p2385
g20
((lp2386
g46
ag2193
ag405
ag689
atp2387
Rp2388
sS'publish3.tools.xmlutil.abstracthandler.AbstractContextHandler'
p2389
g20
((lp2390
g653
atp2391
Rp2392
sS'flask.Flask'
p2393
g20
((lp2394
g1710
atp2395
Rp2396
sS'publish3.tools.migration.helpers'
p2397
g20
((lp2398
g32
ag479
ag1322
ag480
atp2399
Rp2400
sS'mnpy.qep'
p2401
g20
((lp2402
g160
ag803
atp2403
Rp2404
sS'publish3.Folder.Folder'
p2405
g20
((lp2406
g420
ag602
ag275
ag436
ag1123
ag612
atp2407
Rp2408
sS'publish3.Common.FType'
p2409
g20
((lp2410
g261
ag90
ag155
ag45
atp2411
Rp2412
sS'mnpy.RIMClient.RIMClient'
p2413
g20
((lp2414
g409
ag430
ag939
ag547
ag345
ag932
atp2415
Rp2416
sS'test.global_data.SetDaySplit'
p2417
g20
((lp2418
g45
atp2419
Rp2420
sS'IPython.frontend.terminal.embed.InteractiveShellEmbed'
p2421
g20
((lp2422
g55
atp2423
Rp2424
sS'publish3.tools.publisherserver'
p2425
g20
((lp2426
S'run_app'
p2427
atp2428
Rp2429
sS'test.rim.InvokeRIMMethod'
p2430
g20
((lp2431
g42
ag261
ag49
ag44
ag43
ag350
ag45
ag46
ag267
ag895
ag47
ag547
ag48
ag328
ag549
ag265
ag730
ag50
ag345
atp2432
Rp2433
sg428
g20
((lp2434
g126
ag678
atp2435
Rp2436
sS'publish3.integration.digitalsmiths'
p2437
g20
((lp2438
g338
atp2439
Rp2440
sS'requests_toolbelt.MultipartEncoder'
p2441
g20
((lp2442
g81
ag66
ag85
atp2443
Rp2444
sS'readline'
p2445
g20
((lp2446
g55
atp2447
Rp2448
sg613
g20
((lp2449
g216
atp2450
Rp2451
sS'IPython.config.loader.Config'
p2452
g20
((lp2453
g55
atp2454
Rp2455
sS'test.qis_image_test.capture_image'
p2456
g20
((lp2457
g350
atp2458
Rp2459
sS'publish3.source_event'
p2460
g20
((lp2461
g100
ag426
atp2462
Rp2463
sS'webservice.common.url_for'
p2464
g20
((lp2465
g607
ag288
ag608
ag68
ag264
ag274
ag77
ag666
ag613
ag610
ag611
ag612
ag278
ag93
ag440
atp2466
Rp2467
sS'SD.DeleteJob.DeleteJob'
p2468
g20
((lp2469
g413
atp2470
Rp2471
sS'mnpy.enum.Enum'
p2472
g20
((lp2473
g500
atp2474
Rp2475
sS'publish3.SubscriptionPack.SubscriptionPackMD'
p2476
g20
((lp2477
g580
atp2478
Rp2479
sS'mnpy.Monitoring.ZENOSS_INFO'
p2480
g20
((lp2481
g252
atp2482
Rp2483
sS'mnpy.Monitoring.STATUS_CRITICAL'
p2484
g20
((lp2485
g252
atp2486
Rp2487
ssS'class'
p2488
I636
sS'badname_method'
p2489
I1260
sS'by_module'
p2490
(dp2491
S'publish3.program'
p2492
(dp2493
S'info'
p2494
I0
sg15
I0
sg6
I0
sS'warning'
p2495
I0
sg8
I0
sS'error'
p2496
I0
sg11
I0
ssg1385
(dp2497
g2494
I0
sg15
I0
sg6
I0
sg2495
I0
sg8
I0
sg2496
I0
sg11
I0
ssg1322
(dp2498
g2494
I0
sg15
I0
sg6
I0
sg2495
I0
sg8
I0
sg2496
I0
sg11
I0
ssS'julietest'
p2499
(dp2500
g2494
I0
sg15
I0
sg6
I0
sg2495
I0
sg8
I0
sg2496
I0
sg11
I0
ssg266
(dp2501
g2494
I0
sg15
I0
sg6
I0
sg2495
I0
sg8
I0
sg2496
I0
sg11
I0
ssg240
(dp2502
g2494
I0
sg15
I0
sg6
I0
sg2495
I0
sg8
I0
sg2496
I0
sg11
I0
ssg83
(dp2503
g2494
I0
sg15
I0
sg6
I0
sg2495
I0
sg8
I0
sg2496
I0
sg11
I0
ssS'CMS.SSH2'
p2504
(dp2505
g2494
I0
sg15
I0
sg6
I0
sg2495
I0
sg8
I0
sg2496
I0
sg11
I0
ssg417
(dp2506
g2494
I0
sg15
I0
sg6
I0
sg2495
I0
sg8
I0
sg2496
I0
sg11
I0
ssS'events.messages'
p2507
(dp2508
g2494
I0
sg15
I0
sg6
I0
sg2495
I0
sg8
I0
sg2496
I0
sg11
I0
ssS'publish3.tools.publisher'
p2509
(dp2510
g2494
I0
sg15
I0
sg6
I0
sg2495
I0
sg8
I0
sg2496
I0
sg11
I0
ssS'webservice.syndication'
p2511
(dp2512
g2494
I0
sg15
I0
sg6
I0
sg2495
I0
sg8
I0
sg2496
I0
sg11
I0
ssS'publish3.tools.xmlutil.sax2dom'
p2513
(dp2514
g2494
I0
sg15
I0
sg6
I0
sg2495
I0
sg8
I0
sg2496
I0
sg11
I0
ssg255
(dp2515
g2494
I0
sg15
I0
sg6
I0
sg2495
I0
sg8
I0
sg2496
I0
sg11
I0
ssg340
(dp2516
g2494
I0
sg15
I0
sg6
I0
sg2495
I0
sg8
I0
sg2496
I0
sg11
I0
ssS'cms'
p2517
(dp2518
g2494
I0
sg15
I0
sg6
I0
sg2495
I0
sg8
I0
sg2496
I0
sg11
I0
ssg482
(dp2519
g2494
I0
sg15
I0
sg6
I0
sg2495
I0
sg8
I0
sg2496
I0
sg11
I0
ssg1311
(dp2520
g2494
I0
sg15
I0
sg6
I0
sg2495
I0
sg8
I0
sg2496
I0
sg11
I0
ssg241
(dp2521
g2494
I0
sg15
I0
sg6
I0
sg2495
I0
sg8
I0
sg2496
I0
sg11
I0
ssg290
(dp2522
g2494
I0
sg15
I0
sg6
I0
sg2495
I0
sg8
I0
sg2496
I0
sg11
I0
ssg328
(dp2523
g2494
I0
sg15
I0
sg6
I0
sg2495
I0
sg8
I0
sg2496
I0
sg11
I0
ssS'test.garbage_collector'
p2524
(dp2525
g2494
I0
sg15
I0
sg6
I0
sg2495
I0
sg8
I0
sg2496
I0
sg11
I0
ssS'publish3.Entitlement'
p2526
(dp2527
g2494
I0
sg15
I0
sg6
I0
sg2495
I0
sg8
I0
sg2496
I0
sg11
I0
ssS'QIS.IngestThisConfig'
p2528
(dp2529
g2494
I0
sg15
I0
sg6
I0
sg2495
I0
sg8
I0
sg2496
I0
sg11
I0
ssS'CMS'
p2530
(dp2531
g2494
I0
sg15
I0
sg6
I0
sg2495
I0
sg8
I0
sg2496
I0
sg11
I0
ssS'test.test_Metadata'
p2532
(dp2533
g2494
I0
sg15
I0
sg6
I0
sg2495
I0
sg8
I0
sg2496
I0
sg11
I0
ssg498
(dp2534
g2494
I0
sg15
I0
sg6
I0
sg2495
I0
sg8
I0
sg2496
I0
sg11
I0
ssS'publish3.tools.source.__init__'
p2535
(dp2536
g2494
I0
sg15
I0
sg6
I0
sg2495
I0
sg8
I0
sg2496
I0
sg11
I0
ssS'publish3.tools.inputhelper'
p2537
(dp2538
g2494
I0
sg15
I0
sg6
I0
sg2495
I0
sg8
I0
sg2496
I0
sg11
I0
ssg1260
(dp2539
g2494
I0
sg15
I0
sg6
I0
sg2495
I0
sg8
I0
sg2496
I0
sg11
I0
ssS'publish3.tools.b64aes'
p2540
(dp2541
g2494
I0
sg15
I0
sg6
I0
sg2495
I0
sg8
I0
sg2496
I0
sg11
I0
ssS'publish3.Schedule'
p2542
(dp2543
g2494
I0
sg15
I0
sg6
I0
sg2495
I0
sg8
I0
sg2496
I0
sg11
I0
ssS'test.HTTP_Request'
p2544
(dp2545
g2494
I0
sg15
I0
sg6
I0
sg2495
I0
sg8
I0
sg2496
I0
sg11
I0
ssg832
(dp2546
g2494
I0
sg15
I0
sg6
I0
sg2495
I0
sg8
I0
sg2496
I0
sg11
I0
ssg833
(dp2547
g2494
I0
sg15
I0
sg6
I0
sg2495
I0
sg8
I0
sg2496
I0
sg11
I0
ssg682
(dp2548
g2494
I0
sg15
I0
sg6
I0
sg2495
I0
sg8
I0
sg2496
I0
sg11
I0
ssS'publish3.pseudo_series'
p2549
(dp2550
g2494
I0
sg15
I0
sg6
I0
sg2495
I0
sg8
I0
sg2496
I0
sg11
I0
ssg426
(dp2551
g2494
I0
sg15
I0
sg6
I0
sg2495
I0
sg8
I0
sg2496
I0
sg11
I0
ssg429
(dp2552
g2494
I0
sg15
I0
sg6
I0
sg2495
I0
sg8
I0
sg2496
I0
sg11
I0
ssg1392
(dp2553
g2494
I0
sg15
I0
sg6
I0
sg2495
I0
sg8
I0
sg2496
I0
sg11
I0
ssg329
(dp2554
g2494
I0
sg15
I0
sg6
I0
sg2495
I0
sg8
I0
sg2496
I0
sg11
I0
ssS'publish3.dynamic.__init__'
p2555
(dp2556
g2494
I0
sg15
I0
sg6
I0
sg2495
I0
sg8
I0
sg2496
I0
sg11
I0
ssS'CMS.publishercontext'
p2557
(dp2558
g2494
I0
sg15
I0
sg6
I0
sg2495
I0
sg8
I0
sg2496
I0
sg11
I0
ssS'webservice.stations'
p2559
(dp2560
g2494
I0
sg15
I0
sg6
I0
sg2495
I0
sg8
I0
sg2496
I0
sg11
I0
ssg1867
(dp2561
g2494
I0
sg15
I0
sg6
I0
sg2495
I0
sg8
I0
sg2496
I0
sg11
I0
ssS'test.testconfiguration'
p2562
(dp2563
g2494
I0
sg15
I0
sg6
I0
sg2495
I0
sg8
I0
sg2496
I0
sg11
I0
ssg267
(dp2564
g2494
I0
sg15
I0
sg6
I0
sg2495
I0
sg8
I0
sg2496
I0
sg11
I0
ssg2063
(dp2565
g2494
I0
sg15
I0
sg6
I0
sg2495
I0
sg8
I0
sg2496
I0
sg11
I0
ssg74
(dp2566
g2494
I0
sg15
I0
sg6
I0
sg2495
I0
sg8
I0
sg2496
I0
sg11
I0
ssS'publish3.Property'
p2567
(dp2568
g2494
I0
sg15
I0
sg6
I0
sg2495
I0
sg8
I0
sg2496
I0
sg11
I0
ssS'publish3.Channel'
p2569
(dp2570
g2494
I0
sg15
I0
sg6
I0
sg2495
I0
sg8
I0
sg2496
I0
sg11
I0
ssg714
(dp2571
g2494
I0
sg15
I0
sg6
I0
sg2495
I0
sg8
I0
sg2496
I0
sg11
I0
ssg547
(dp2572
g2494
I0
sg15
I0
sg6
I0
sg2495
I0
sg8
I0
sg2496
I0
sg11
I0
ssS'epgimport.epg.thermos'
p2573
(dp2574
g2494
I0
sg15
I0
sg6
I0
sg2495
I0
sg8
I0
sg2496
I0
sg11
I0
ssg89
(dp2575
g2494
I0
sg15
I0
sg6
I0
sg2495
I0
sg8
I0
sg2496
I0
sg11
I0
ssg84
(dp2576
g2494
I0
sg15
I0
sg6
I0
sg2495
I0
sg8
I0
sg2496
I0
sg11
I0
ssg2193
(dp2577
g2494
I0
sg15
I0
sg6
I0
sg2495
I0
sg8
I0
sg2496
I0
sg11
I0
ssS'CMS.api.channel'
p2578
(dp2579
g2494
I0
sg15
I0
sg6
I0
sg2495
I0
sg8
I0
sg2496
I0
sg11
I0
ssg71
(dp2580
g2494
I0
sg15
I0
sg6
I0
sg2495
I0
sg8
I0
sg2496
I0
sg11
I0
ssS'publish3.team'
p2581
(dp2582
g2494
I0
sg15
I0
sg6
I0
sg2495
I0
sg8
I0
sg2496
I0
sg11
I0
ssS'publish3.EPG'
p2583
(dp2584
g2494
I0
sg15
I0
sg6
I0
sg2495
I0
sg8
I0
sg2496
I0
sg11
I0
ssS'publish3.DBTables'
p2585
(dp2586
g2494
I0
sg15
I0
sg6
I0
sg2495
I0
sg8
I0
sg2496
I0
sg11
I0
ssg790
(dp2587
g2494
I0
sg15
I0
sg6
I0
sg2495
I0
sg8
I0
sg2496
I0
sg11
I0
ssg432
(dp2588
g2494
I0
sg15
I0
sg6
I0
sg2495
I0
sg8
I0
sg2496
I0
sg11
I0
ssg680
(dp2589
g2494
I0
sg15
I0
sg6
I0
sg2495
I0
sg8
I0
sg2496
I0
sg11
I0
ssg574
(dp2590
g2494
I0
sg15
I0
sg6
I0
sg2495
I0
sg8
I0
sg2496
I0
sg11
I0
ssg2374
(dp2591
g2494
I0
sg15
I0
sg6
I0
sg2495
I0
sg8
I0
sg2496
I0
sg11
I0
ssS'publish3.Common'
p2592
(dp2593
g2494
I0
sg15
I0
sg6
I0
sg2495
I0
sg8
I0
sg2496
I0
sg11
I0
ssg335
(dp2594
g2494
I0
sg15
I0
sg6
I0
sg2495
I0
sg8
I0
sg2496
I0
sg11
I0
ssg840
(dp2595
g2494
I0
sg15
I0
sg6
I0
sg2495
I0
sg8
I0
sg2496
I0
sg11
I0
ssg691
(dp2596
g2494
I0
sg15
I0
sg6
I0
sg2495
I0
sg8
I0
sg2496
I0
sg11
I0
ssS'cms.__version__'
p2597
(dp2598
g2494
I0
sg15
I0
sg6
I0
sg2495
I0
sg8
I0
sg2496
I0
sg11
I0
ssS'Streamlets.qssreader'
p2599
(dp2600
g2494
I0
sg15
I0
sg6
I0
sg2495
I0
sg8
I0
sg2496
I0
sg11
I0
ssS'publish3.epg.schedule'
p2601
(dp2602
g2494
I0
sg15
I0
sg6
I0
sg2495
I0
sg8
I0
sg2496
I0
sg11
I0
ssS'webservice.ribbons'
p2603
(dp2604
g2494
I0
sg15
I0
sg6
I0
sg2495
I0
sg8
I0
sg2496
I0
sg11
I0
ssS'webservice.httpstatuscodes'
p2605
(dp2606
g2494
I0
sg15
I0
sg6
I0
sg2495
I0
sg8
I0
sg2496
I0
sg11
I0
ssg47
(dp2607
g2494
I0
sg15
I0
sg6
I0
sg2495
I0
sg8
I0
sg2496
I0
sg11
I0
ssg936
(dp2608
g2494
I0
sg15
I0
sg6
I0
sg2495
I0
sg8
I0
sg2496
I0
sg11
I0
ssg85
(dp2609
g2494
I0
sg15
I0
sg6
I0
sg2495
I0
sg8
I0
sg2496
I0
sg11
I0
ssS'CMS.ConfigSettings'
p2610
(dp2611
g2494
I0
sg15
I0
sg6
I0
sg2495
I0
sg8
I0
sg2496
I0
sg11
I0
ssg480
(dp2612
g2494
I0
sg15
I0
sg6
I0
sg2495
I0
sg8
I0
sg2496
I0
sg11
I0
ssS'CMS.api.__init__'
p2613
(dp2614
g2494
I0
sg15
I0
sg6
I0
sg2495
I0
sg8
I0
sg2496
I0
sg11
I0
ssS'publish3.Containment'
p2615
(dp2616
g2494
I0
sg15
I0
sg6
I0
sg2495
I0
sg8
I0
sg2496
I0
sg11
I0
ssS'webservice.security.roles'
p2617
(dp2618
g2494
I0
sg15
I0
sg6
I0
sg2495
I0
sg8
I0
sg2496
I0
sg11
I0
ssS'CMS.ORMLib'
p2619
(dp2620
g2494
I0
sg15
I0
sg6
I0
sg2495
I0
sg8
I0
sg2496
I0
sg11
I0
ssS'CMS.Util'
p2621
(dp2622
g2494
I0
sg15
I0
sg6
I0
sg2495
I0
sg8
I0
sg2496
I0
sg11
I0
ssg573
(dp2623
g2494
I0
sg15
I0
sg6
I0
sg2495
I0
sg8
I0
sg2496
I0
sg11
I0
ssg405
(dp2624
g2494
I0
sg15
I0
sg6
I0
sg2495
I0
sg8
I0
sg2496
I0
sg11
I0
ssg920
(dp2625
g2494
I0
sg15
I0
sg6
I0
sg2495
I0
sg8
I0
sg2496
I0
sg11
I0
ssg2427
(dp2626
g2494
I0
sg15
I0
sg6
I0
sg2495
I0
sg8
I0
sg2496
I0
sg11
I0
ssS'webservice.sources'
p2627
(dp2628
g2494
I0
sg15
I0
sg6
I0
sg2495
I0
sg8
I0
sg2496
I0
sg11
I0
ssg76
(dp2629
g2494
I0
sg15
I0
sg6
I0
sg2495
I0
sg8
I0
sg2496
I0
sg11
I0
ssS'test.Populate'
p2630
(dp2631
g2494
I0
sg15
I0
sg6
I0
sg2495
I0
sg8
I0
sg2496
I0
sg11
I0
ssS'QIS.Profile'
p2632
(dp2633
g2494
I0
sg15
I0
sg6
I0
sg2495
I0
sg8
I0
sg2496
I0
sg11
I0
ssS'webservice.celebrities'
p2634
(dp2635
g2494
I0
sg15
I0
sg6
I0
sg2495
I0
sg8
I0
sg2496
I0
sg11
I0
ssg45
(dp2636
g2494
I0
sg15
I0
sg6
I0
sg2495
I0
sg8
I0
sg2496
I0
sg11
I0
ssS'publish3.__version__'
p2637
(dp2638
g2494
I0
sg15
I0
sg6
I0
sg2495
I0
sg8
I0
sg2496
I0
sg11
I0
ssg679
(dp2639
g2494
I0
sg15
I0
sg6
I0
sg2495
I0
sg8
I0
sg2496
I0
sg11
I0
ssS'publish3.Asset'
p2640
(dp2641
g2494
I0
sg15
I0
sg6
I0
sg2495
I0
sg8
I0
sg2496
I0
sg11
I0
ssS'Streamlets.QSS'
p2642
(dp2643
g2494
I0
sg15
I0
sg6
I0
sg2495
I0
sg8
I0
sg2496
I0
sg11
I0
ssS'publish3.tools.migration.subpacks'
p2644
(dp2645
g2494
I0
sg15
I0
sg6
I0
sg2495
I0
sg8
I0
sg2496
I0
sg11
I0
ssS'CMS.AuditLog'
p2646
(dp2647
g2494
I0
sg15
I0
sg6
I0
sg2495
I0
sg8
I0
sg2496
I0
sg11
I0
ssg431
(dp2648
g2494
I0
sg15
I0
sg6
I0
sg2495
I0
sg8
I0
sg2496
I0
sg11
I0
ssS'publish3.MonitorPublisher'
p2649
(dp2650
g2494
I0
sg15
I0
sg6
I0
sg2495
I0
sg8
I0
sg2496
I0
sg11
I0
ssg356
(dp2651
g2494
I0
sg15
I0
sg6
I0
sg2495
I0
sg8
I0
sg2496
I0
sg11
I0
ssg100
(dp2652
g2494
I0
sg15
I0
sg6
I0
sg2495
I0
sg8
I0
sg2496
I0
sg11
I0
ssg422
(dp2653
g2494
I0
sg15
I0
sg6
I0
sg2495
I0
sg8
I0
sg2496
I0
sg11
I0
ssg101
(dp2654
g2494
I0
sg15
I0
sg6
I0
sg2495
I0
sg8
I0
sg2496
I0
sg11
I0
ssg839
(dp2655
g2494
I0
sg15
I0
sg6
I0
sg2495
I0
sg8
I0
sg2496
I0
sg11
I0
ssS'webservice.season'
p2656
(dp2657
g2494
I0
sg15
I0
sg6
I0
sg2495
I0
sg8
I0
sg2496
I0
sg11
I0
ssS'webservice.security.decorators'
p2658
(dp2659
g2494
I0
sg15
I0
sg6
I0
sg2495
I0
sg8
I0
sg2496
I0
sg11
I0
ssS'test.global_data'
p2660
(dp2661
g2494
I0
sg15
I0
sg6
I0
sg2495
I0
sg8
I0
sg2496
I0
sg11
I0
ssS'epgimport.epg.__init__'
p2662
(dp2663
g2494
I0
sg15
I0
sg6
I0
sg2495
I0
sg8
I0
sg2496
I0
sg11
I0
ssS'CMS.rim'
p2664
(dp2665
g2494
I0
sg15
I0
sg6
I0
sg2495
I0
sg8
I0
sg2496
I0
sg11
I0
ssS'publish3.tools.vodrss'
p2666
(dp2667
g2494
I0
sg15
I0
sg6
I0
sg2495
I0
sg8
I0
sg2496
I0
sg11
I0
ssg50
(dp2668
g2494
I0
sg15
I0
sg6
I0
sg2495
I0
sg8
I0
sg2496
I0
sg11
I0
ssS'Streamlets.encryptkeys'
p2669
(dp2670
g2494
I0
sg15
I0
sg6
I0
sg2495
I0
sg8
I0
sg2496
I0
sg11
I0
ssg1312
(dp2671
g2494
I0
sg15
I0
sg6
I0
sg2495
I0
sg8
I0
sg2496
I0
sg11
I0
ssS'webservice.franchise'
p2672
(dp2673
g2494
I0
sg15
I0
sg6
I0
sg2495
I0
sg8
I0
sg2496
I0
sg11
I0
ssg413
(dp2674
g2494
I0
sg15
I0
sg6
I0
sg2495
I0
sg8
I0
sg2496
I0
sg11
I0
ssg414
(dp2675
g2494
I0
sg15
I0
sg6
I0
sg2495
I0
sg8
I0
sg2496
I0
sg11
I0
ssS'publish3.Settings'
p2676
(dp2677
g2494
I0
sg15
I0
sg6
I0
sg2495
I0
sg8
I0
sg2496
I0
sg11
I0
ssS'publish3.ViewStats'
p2678
(dp2679
g2494
I0
sg15
I0
sg6
I0
sg2495
I0
sg8
I0
sg2496
I0
sg11
I0
ssS'publish3.thermaview'
p2680
(dp2681
g2494
I0
sg15
I0
sg6
I0
sg2495
I0
sg8
I0
sg2496
I0
sg11
I0
ssS'publish3.tools.interactive'
p2682
(dp2683
g2494
I0
sg15
I0
sg6
I0
sg2495
I0
sg8
I0
sg2496
I0
sg11
I0
ssg2191
(dp2684
g2494
I0
sg15
I0
sg6
I0
sg2495
I0
sg8
I0
sg2496
I0
sg11
I0
ssS'publish3.tools.asset.__init__'
p2685
(dp2686
g2494
I0
sg15
I0
sg6
I0
sg2495
I0
sg8
I0
sg2496
I0
sg11
I0
ssS'publish3.Metadata'
p2687
(dp2688
g2494
I0
sg15
I0
sg6
I0
sg2495
I0
sg8
I0
sg2496
I0
sg11
I0
ssg683
(dp2689
g2494
I0
sg15
I0
sg6
I0
sg2495
I0
sg8
I0
sg2496
I0
sg11
I0
ssg427
(dp2690
g2494
I0
sg15
I0
sg6
I0
sg2495
I0
sg8
I0
sg2496
I0
sg11
I0
ssg197
(dp2691
g2494
I0
sg15
I0
sg6
I0
sg2495
I0
sg8
I0
sg2496
I0
sg11
I0
ssg117
(dp2692
g2494
I0
sg15
I0
sg6
I0
sg2495
I0
sg8
I0
sg2496
I0
sg11
I0
ssS'publish3.tools.mediaview.sax2dom'
p2693
(dp2694
g2494
I0
sg15
I0
sg6
I0
sg2495
I0
sg8
I0
sg2496
I0
sg11
I0
ssg684
(dp2695
g2494
I0
sg15
I0
sg6
I0
sg2495
I0
sg8
I0
sg2496
I0
sg11
I0
ssg926
(dp2696
g2494
I0
sg15
I0
sg6
I0
sg2495
I0
sg8
I0
sg2496
I0
sg11
I0
ssS'publish3.Container'
p2697
(dp2698
g2494
I0
sg15
I0
sg6
I0
sg2495
I0
sg8
I0
sg2496
I0
sg11
I0
ssS'CMS.Events'
p2699
(dp2700
g2494
I0
sg15
I0
sg6
I0
sg2495
I0
sg8
I0
sg2496
I0
sg11
I0
ssS'QIS.Encoder'
p2701
(dp2702
g2494
I0
sg15
I0
sg6
I0
sg2495
I0
sg8
I0
sg2496
I0
sg11
I0
ssS'webservice.security.__init__'
p2703
(dp2704
g2494
I0
sg15
I0
sg6
I0
sg2495
I0
sg8
I0
sg2496
I0
sg11
I0
ssS'epgimport'
p2705
(dp2706
g2494
I0
sg15
I0
sg6
I0
sg2495
I0
sg8
I0
sg2496
I0
sg11
I0
ssg1152
(dp2707
g2494
I0
sg15
I0
sg6
I0
sg2495
I0
sg8
I0
sg2496
I0
sg11
I0
ssg232
(dp2708
g2494
I0
sg15
I0
sg6
I0
sg2495
I0
sg8
I0
sg2496
I0
sg11
I0
ssg688
(dp2709
g2494
I0
sg15
I0
sg6
I0
sg2495
I0
sg8
I0
sg2496
I0
sg11
I0
ssg687
(dp2710
g2494
I0
sg15
I0
sg6
I0
sg2495
I0
sg8
I0
sg2496
I0
sg11
I0
ssS'webservice.servicepartners'
p2711
(dp2712
g2494
I0
sg15
I0
sg6
I0
sg2495
I0
sg8
I0
sg2496
I0
sg11
I0
ssg43
(dp2713
g2494
I0
sg15
I0
sg6
I0
sg2495
I0
sg8
I0
sg2496
I0
sg11
I0
ssg1151
(dp2714
g2494
I0
sg15
I0
sg6
I0
sg2495
I0
sg8
I0
sg2496
I0
sg11
I0
ssg357
(dp2715
g2494
I0
sg15
I0
sg6
I0
sg2495
I0
sg8
I0
sg2496
I0
sg11
I0
ssg835
(dp2716
g2494
I0
sg15
I0
sg6
I0
sg2495
I0
sg8
I0
sg2496
I0
sg11
I0
ssS'webservice.wsutil'
p2717
(dp2718
g2494
I0
sg15
I0
sg6
I0
sg2495
I0
sg8
I0
sg2496
I0
sg11
I0
ssS'test.wsapitest.cmswebservice'
p2719
(dp2720
g2494
I0
sg15
I0
sg6
I0
sg2495
I0
sg8
I0
sg2496
I0
sg11
I0
ssg242
(dp2721
g2494
I0
sg15
I0
sg6
I0
sg2495
I0
sg8
I0
sg2496
I0
sg11
I0
ssg119
(dp2722
g2494
I0
sg15
I0
sg6
I0
sg2495
I0
sg8
I0
sg2496
I0
sg11
I0
ssS'publish3.tools.migration.channels'
p2723
(dp2724
g2494
I0
sg15
I0
sg6
I0
sg2495
I0
sg8
I0
sg2496
I0
sg11
I0
ssS'publish3.Rim'
p2725
(dp2726
g2494
I0
sg15
I0
sg6
I0
sg2495
I0
sg8
I0
sg2496
I0
sg11
I0
ssg48
(dp2727
g2494
I0
sg15
I0
sg6
I0
sg2495
I0
sg8
I0
sg2496
I0
sg11
I0
ssS'devtools'
p2728
(dp2729
g2494
I0
sg15
I0
sg6
I0
sg2495
I0
sg8
I0
sg2496
I0
sg11
I0
ssS'publish3.franchise'
p2730
(dp2731
g2494
I0
sg15
I0
sg6
I0
sg2495
I0
sg8
I0
sg2496
I0
sg11
I0
ssS'test.wsapitest.common'
p2732
(dp2733
g2494
I0
sg15
I0
sg6
I0
sg2495
I0
sg8
I0
sg2496
I0
sg11
I0
ssS'Streamlets.qsswriter'
p2734
(dp2735
g2494
I0
sg15
I0
sg6
I0
sg2495
I0
sg8
I0
sg2496
I0
sg11
I0
ssg550
(dp2736
g2494
I0
sg15
I0
sg6
I0
sg2495
I0
sg8
I0
sg2496
I0
sg11
I0
ssg478
(dp2737
g2494
I0
sg15
I0
sg6
I0
sg2495
I0
sg8
I0
sg2496
I0
sg11
I0
ssg694
(dp2738
g2494
I0
sg15
I0
sg6
I0
sg2495
I0
sg8
I0
sg2496
I0
sg11
I0
ssg86
(dp2739
g2494
I0
sg15
I0
sg6
I0
sg2495
I0
sg8
I0
sg2496
I0
sg11
I0
ssg355
(dp2740
g2494
I0
sg15
I0
sg6
I0
sg2495
I0
sg8
I0
sg2496
I0
sg11
I0
ssS'CMS.Rights'
p2741
(dp2742
g2494
I0
sg15
I0
sg6
I0
sg2495
I0
sg8
I0
sg2496
I0
sg11
I0
ssS'publish3.tools.loadmeta'
p2743
(dp2744
g2494
I0
sg15
I0
sg6
I0
sg2495
I0
sg8
I0
sg2496
I0
sg11
I0
ssg227
(dp2745
g2494
I0
sg15
I0
sg6
I0
sg2495
I0
sg8
I0
sg2496
I0
sg11
I0
ssg94
(dp2746
g2494
I0
sg15
I0
sg6
I0
sg2495
I0
sg8
I0
sg2496
I0
sg11
I0
ssg836
(dp2747
g2494
I0
sg15
I0
sg6
I0
sg2495
I0
sg8
I0
sg2496
I0
sg11
I0
ssS'publish3.tools.vodsyndication.assets'
p2748
(dp2749
g2494
I0
sg15
I0
sg6
I0
sg2495
I0
sg8
I0
sg2496
I0
sg11
I0
ssS'CMS.StreamEdit'
p2750
(dp2751
g2494
I0
sg15
I0
sg6
I0
sg2495
I0
sg8
I0
sg2496
I0
sg11
I0
ssS'publish3.Ingestion'
p2752
(dp2753
g2494
I0
sg15
I0
sg6
I0
sg2495
I0
sg8
I0
sg2496
I0
sg11
I0
ssg939
(dp2754
g2494
I0
sg15
I0
sg6
I0
sg2495
I0
sg8
I0
sg2496
I0
sg11
I0
ssg794
(dp2755
g2494
I0
sg15
I0
sg6
I0
sg2495
I0
sg8
I0
sg2496
I0
sg11
I0
ssS'CMS.WSGIApp'
p2756
(dp2757
g2494
I0
sg15
I0
sg6
I0
sg2495
I0
sg8
I0
sg2496
I0
sg11
I0
ssS'publish3.tools.migration.__init__'
p2758
(dp2759
g2494
I0
sg15
I0
sg6
I0
sg2495
I0
sg8
I0
sg2496
I0
sg11
I0
ssS'publish3'
p2760
(dp2761
g2494
I0
sg15
I0
sg6
I0
sg2495
I0
sg8
I0
sg2496
I0
sg11
I0
ssS'CMS.api.asset'
p2762
(dp2763
g2494
I0
sg15
I0
sg6
I0
sg2495
I0
sg8
I0
sg2496
I0
sg11
I0
ssg211
(dp2764
g2494
I0
sg15
I0
sg6
I0
sg2495
I0
sg8
I0
sg2496
I0
sg11
I0
ssS'webservice.hostrules'
p2765
(dp2766
g2494
I0
sg15
I0
sg6
I0
sg2495
I0
sg8
I0
sg2496
I0
sg11
I0
ssS'webservice.pseudoseries'
p2767
(dp2768
g2494
I0
sg15
I0
sg6
I0
sg2495
I0
sg8
I0
sg2496
I0
sg11
I0
ssg677
(dp2769
g2494
I0
sg15
I0
sg6
I0
sg2495
I0
sg8
I0
sg2496
I0
sg11
I0
ssg358
(dp2770
g2494
I0
sg15
I0
sg6
I0
sg2495
I0
sg8
I0
sg2496
I0
sg11
I0
ssg336
(dp2771
g2494
I0
sg15
I0
sg6
I0
sg2495
I0
sg8
I0
sg2496
I0
sg11
I0
ssg562
(dp2772
g2494
I0
sg15
I0
sg6
I0
sg2495
I0
sg8
I0
sg2496
I0
sg11
I0
ssS'test.publisher'
p2773
(dp2774
g2494
I0
sg15
I0
sg6
I0
sg2495
I0
sg8
I0
sg2496
I0
sg11
I0
ssg789
(dp2775
g2494
I0
sg15
I0
sg6
I0
sg2495
I0
sg8
I0
sg2496
I0
sg11
I0
ssS'CMS.rimcore'
p2776
(dp2777
g2494
I0
sg15
I0
sg6
I0
sg2495
I0
sg8
I0
sg2496
I0
sg11
I0
ssg81
(dp2778
g2494
I0
sg15
I0
sg6
I0
sg2495
I0
sg8
I0
sg2496
I0
sg11
I0
ssS'webservice.programs'
p2779
(dp2780
g2494
I0
sg15
I0
sg6
I0
sg2495
I0
sg8
I0
sg2496
I0
sg11
I0
ssS'publish3.tools.mediaview.__init__'
p2781
(dp2782
g2494
I0
sg15
I0
sg6
I0
sg2495
I0
sg8
I0
sg2496
I0
sg11
I0
ssg276
(dp2783
g2494
I0
sg15
I0
sg6
I0
sg2495
I0
sg8
I0
sg2496
I0
sg11
I0
ssS'QIS.metadata'
p2784
(dp2785
g2494
I0
sg15
I0
sg6
I0
sg2495
I0
sg8
I0
sg2496
I0
sg11
I0
ssg957
(dp2786
g2494
I0
sg15
I0
sg6
I0
sg2495
I0
sg8
I0
sg2496
I0
sg11
I0
ssS'webservice.teams'
p2787
(dp2788
g2494
I0
sg15
I0
sg6
I0
sg2495
I0
sg8
I0
sg2496
I0
sg11
I0
ssS'publish3.BigKey'
p2789
(dp2790
g2494
I0
sg15
I0
sg6
I0
sg2495
I0
sg8
I0
sg2496
I0
sg11
I0
ssS'publish3.season'
p2791
(dp2792
g2494
I0
sg15
I0
sg6
I0
sg2495
I0
sg8
I0
sg2496
I0
sg11
I0
ssS'publish3.MiscProduct'
p2793
(dp2794
g2494
I0
sg15
I0
sg6
I0
sg2495
I0
sg8
I0
sg2496
I0
sg11
I0
ssS'publish3.Template'
p2795
(dp2796
g2494
I0
sg15
I0
sg6
I0
sg2495
I0
sg8
I0
sg2496
I0
sg11
I0
ssg212
(dp2797
g2494
I0
sg15
I0
sg6
I0
sg2495
I0
sg8
I0
sg2496
I0
sg11
I0
ssS'publish3.Upgrades'
p2798
(dp2799
g2494
I0
sg15
I0
sg6
I0
sg2495
I0
sg8
I0
sg2496
I0
sg11
I0
ssS'publish3.tools.mediaview.consumer'
p2800
(dp2801
g2494
I0
sg15
I0
sg6
I0
sg2495
I0
sg8
I0
sg2496
I0
sg11
I0
ssS'publish3.source'
p2802
(dp2803
g2494
I0
sg15
I0
sg6
I0
sg2495
I0
sg8
I0
sg2496
I0
sg11
I0
ssg430
(dp2804
g2494
I0
sg15
I0
sg6
I0
sg2495
I0
sg8
I0
sg2496
I0
sg11
I0
ssg262
(dp2805
g2494
I0
sg15
I0
sg6
I0
sg2495
I0
sg8
I0
sg2496
I0
sg11
I0
ssg922
(dp2806
g2494
I0
sg15
I0
sg6
I0
sg2495
I0
sg8
I0
sg2496
I0
sg11
I0
ssS'webservice.channels'
p2807
(dp2808
g2494
I0
sg15
I0
sg6
I0
sg2495
I0
sg8
I0
sg2496
I0
sg11
I0
ssS'webservice.assets'
p2809
(dp2810
g2494
I0
sg15
I0
sg6
I0
sg2495
I0
sg8
I0
sg2496
I0
sg11
I0
ssg575
(dp2811
g2494
I0
sg15
I0
sg6
I0
sg2495
I0
sg8
I0
sg2496
I0
sg11
I0
ssg1524
(dp2812
g2494
I0
sg15
I0
sg6
I0
sg2495
I0
sg8
I0
sg2496
I0
sg11
I0
ssg559
(dp2813
g2494
I0
sg15
I0
sg6
I0
sg2495
I0
sg8
I0
sg2496
I0
sg11
I0
ssS'publish3.tools.xmlutil.__init__'
p2814
(dp2815
g2494
I0
sg15
I0
sg6
I0
sg2495
I0
sg8
I0
sg2496
I0
sg11
I0
ssS'publish3.epg.__init__'
p2816
(dp2817
g2494
I0
sg15
I0
sg6
I0
sg2495
I0
sg8
I0
sg2496
I0
sg11
I0
ssg49
(dp2818
g2494
I0
sg15
I0
sg6
I0
sg2495
I0
sg8
I0
sg2496
I0
sg11
I0
ssS'publish3.tools.vod.__init__'
p2819
(dp2820
g2494
I0
sg15
I0
sg6
I0
sg2495
I0
sg8
I0
sg2496
I0
sg11
I0
ssS'publish3.Folder'
p2821
(dp2822
g2494
I0
sg15
I0
sg6
I0
sg2495
I0
sg8
I0
sg2496
I0
sg11
I0
ssg142
(dp2823
g2494
I0
sg15
I0
sg6
I0
sg2495
I0
sg8
I0
sg2496
I0
sg11
I0
ssg80
(dp2824
g2494
I0
sg15
I0
sg6
I0
sg2495
I0
sg8
I0
sg2496
I0
sg11
I0
ssS'QIS.Schedule'
p2825
(dp2826
g2494
I0
sg15
I0
sg6
I0
sg2495
I0
sg8
I0
sg2496
I0
sg11
I0
ssS'publish3.Domain'
p2827
(dp2828
g2494
I0
sg15
I0
sg6
I0
sg2495
I0
sg8
I0
sg2496
I0
sg11
I0
ssS'test.testenv'
p2829
(dp2830
g2494
I0
sg15
I0
sg6
I0
sg2495
I0
sg8
I0
sg2496
I0
sg11
I0
ssS'CMS.__version__'
p2831
(dp2832
g2494
I0
sg15
I0
sg6
I0
sg2495
I0
sg8
I0
sg2496
I0
sg11
I0
ssg2190
(dp2833
g2494
I0
sg15
I0
sg6
I0
sg2495
I0
sg8
I0
sg2496
I0
sg11
I0
ssS'CMS.globalconfig'
p2834
(dp2835
g2494
I0
sg15
I0
sg6
I0
sg2495
I0
sg8
I0
sg2496
I0
sg11
I0
ssS'CMS.Cache'
p2836
(dp2837
g2494
I0
sg15
I0
sg6
I0
sg2495
I0
sg8
I0
sg2496
I0
sg11
I0
ssS'CMS.CommonErrors'
p2838
(dp2839
g2494
I0
sg15
I0
sg6
I0
sg2495
I0
sg8
I0
sg2496
I0
sg11
I0
ssg549
(dp2840
g2494
I0
sg15
I0
sg6
I0
sg2495
I0
sg8
I0
sg2496
I0
sg11
I0
ssg345
(dp2841
g2494
I0
sg15
I0
sg6
I0
sg2495
I0
sg8
I0
sg2496
I0
sg11
I0
ssg210
(dp2842
g2494
I0
sg15
I0
sg6
I0
sg2495
I0
sg8
I0
sg2496
I0
sg11
I0
ssS'CMS.CMSWSGIHandler'
p2843
(dp2844
g2494
I0
sg15
I0
sg6
I0
sg2495
I0
sg8
I0
sg2496
I0
sg11
I0
ssg435
(dp2845
g2494
I0
sg15
I0
sg6
I0
sg2495
I0
sg8
I0
sg2496
I0
sg11
I0
ssg1626
(dp2846
g2494
I0
sg15
I0
sg6
I0
sg2495
I0
sg8
I0
sg2496
I0
sg11
I0
ssg102
(dp2847
g2494
I0
sg15
I0
sg6
I0
sg2495
I0
sg8
I0
sg2496
I0
sg11
I0
ssg580
(dp2848
g2494
I0
sg15
I0
sg6
I0
sg2495
I0
sg8
I0
sg2496
I0
sg11
I0
ssg1323
(dp2849
g2494
I0
sg15
I0
sg6
I0
sg2495
I0
sg8
I0
sg2496
I0
sg11
I0
ssg477
(dp2850
g2494
I0
sg15
I0
sg6
I0
sg2495
I0
sg8
I0
sg2496
I0
sg11
I0
ssS'publish3.Track'
p2851
(dp2852
g2494
I0
sg15
I0
sg6
I0
sg2495
I0
sg8
I0
sg2496
I0
sg11
I0
ssg73
(dp2853
g2494
I0
sg15
I0
sg6
I0
sg2495
I0
sg8
I0
sg2496
I0
sg11
I0
ssS'publish3.ratings'
p2854
(dp2855
g2494
I0
sg15
I0
sg6
I0
sg2495
I0
sg8
I0
sg2496
I0
sg11
I0
ssg66
(dp2856
g2494
I0
sg15
I0
sg6
I0
sg2495
I0
sg8
I0
sg2496
I0
sg11
I0
ssS'publish3.tools.xmlutil.abstracthandler'
p2857
(dp2858
g2494
I0
sg15
I0
sg6
I0
sg2495
I0
sg8
I0
sg2496
I0
sg11
I0
ssS'publish3.SubscriptionPack'
p2859
(dp2860
g2494
I0
sg15
I0
sg6
I0
sg2495
I0
sg8
I0
sg2496
I0
sg11
I0
ssS'CMS.api.source'
p2861
(dp2862
g2494
I0
sg15
I0
sg6
I0
sg2495
I0
sg8
I0
sg2496
I0
sg11
I0
ssS'CMS.comp'
p2863
(dp2864
g2494
I0
sg15
I0
sg6
I0
sg2495
I0
sg8
I0
sg2496
I0
sg11
I0
ssS'test.ChannelPageValidation'
p2865
(dp2866
g2494
I0
sg15
I0
sg6
I0
sg2495
I0
sg8
I0
sg2496
I0
sg11
I0
ssg930
(dp2867
g2494
I0
sg15
I0
sg6
I0
sg2495
I0
sg8
I0
sg2496
I0
sg11
I0
ssg91
(dp2868
g2494
I0
sg15
I0
sg6
I0
sg2495
I0
sg8
I0
sg2496
I0
sg11
I0
ssS'publish3.tools.ap.__init__'
p2869
(dp2870
g2494
I0
sg15
I0
sg6
I0
sg2495
I0
sg8
I0
sg2496
I0
sg11
I0
ssg2194
(dp2871
g2494
I0
sg15
I0
sg6
I0
sg2495
I0
sg8
I0
sg2496
I0
sg11
I0
ssS'Streamlets.qmxlib'
p2872
(dp2873
g2494
I0
sg15
I0
sg6
I0
sg2495
I0
sg8
I0
sg2496
I0
sg11
I0
ssS'test.qis_metadata_test'
p2874
(dp2875
g2494
I0
sg15
I0
sg6
I0
sg2495
I0
sg8
I0
sg2496
I0
sg11
I0
ssS'publish3.tools.readstatic'
p2876
(dp2877
g2494
I0
sg15
I0
sg6
I0
sg2495
I0
sg8
I0
sg2496
I0
sg11
I0
ssg122
(dp2878
g2494
I0
sg15
I0
sg6
I0
sg2495
I0
sg8
I0
sg2496
I0
sg11
I0
ssg123
(dp2879
g2494
I0
sg15
I0
sg6
I0
sg2495
I0
sg8
I0
sg2496
I0
sg11
I0
ssS'QIS.Common'
p2880
(dp2881
g2494
I0
sg15
I0
sg6
I0
sg2495
I0
sg8
I0
sg2496
I0
sg11
I0
ssg1635
(dp2882
g2494
I0
sg15
I0
sg6
I0
sg2495
I0
sg8
I0
sg2496
I0
sg11
I0
ssS'CMS.api.team'
p2883
(dp2884
g2494
I0
sg15
I0
sg6
I0
sg2495
I0
sg8
I0
sg2496
I0
sg11
I0
ssS'publish3.tools.mediaview.franchise'
p2885
(dp2886
g2494
I0
sg15
I0
sg6
I0
sg2495
I0
sg8
I0
sg2496
I0
sg11
I0
ssg1632
(dp2887
g2494
I0
sg15
I0
sg6
I0
sg2495
I0
sg8
I0
sg2496
I0
sg11
I0
ssg75
(dp2888
g2494
I0
sg15
I0
sg6
I0
sg2495
I0
sg8
I0
sg2496
I0
sg11
I0
ssS'test.async'
p2889
(dp2890
g2494
I0
sg15
I0
sg6
I0
sg2495
I0
sg8
I0
sg2496
I0
sg11
I0
ssS'CMS.DBUpgrades'
p2891
(dp2892
g2494
I0
sg15
I0
sg6
I0
sg2495
I0
sg8
I0
sg2496
I0
sg11
I0
ssg322
(dp2893
g2494
I0
sg15
I0
sg6
I0
sg2495
I0
sg8
I0
sg2496
I0
sg11
I0
ssS'publish3.SourceSet'
p2894
(dp2895
g2494
I0
sg15
I0
sg6
I0
sg2495
I0
sg8
I0
sg2496
I0
sg11
I0
ssS'CMS.aeswrap'
p2896
(dp2897
g2494
I0
sg15
I0
sg6
I0
sg2495
I0
sg8
I0
sg2496
I0
sg11
I0
ssg27
(dp2898
g2494
I0
sg15
I0
sg6
I0
sg2495
I0
sg8
I0
sg2496
I0
sg11
I0
ssS'publish3.Syndication'
p2899
(dp2900
g2494
I0
sg15
I0
sg6
I0
sg2495
I0
sg8
I0
sg2496
I0
sg11
I0
ssS'CMS.Settings'
p2901
(dp2902
g2494
I0
sg15
I0
sg6
I0
sg2495
I0
sg8
I0
sg2496
I0
sg11
I0
ssg87
(dp2903
g2494
I0
sg15
I0
sg6
I0
sg2495
I0
sg8
I0
sg2496
I0
sg11
I0
ssS'CMS.Session'
p2904
(dp2905
g2494
I0
sg15
I0
sg6
I0
sg2495
I0
sg8
I0
sg2496
I0
sg11
I0
ssS'publish3.EncryptionGroup'
p2906
(dp2907
g2494
I0
sg15
I0
sg6
I0
sg2495
I0
sg8
I0
sg2496
I0
sg11
I0
ssg938
(dp2908
g2494
I0
sg15
I0
sg6
I0
sg2495
I0
sg8
I0
sg2496
I0
sg11
I0
ssS'CMS.QMXReader'
p2909
(dp2910
g2494
I0
sg15
I0
sg6
I0
sg2495
I0
sg8
I0
sg2496
I0
sg11
I0
ssg768
(dp2911
g2494
I0
sg15
I0
sg6
I0
sg2495
I0
sg8
I0
sg2496
I0
sg11
I0
ssS'QIS.EncPrep'
p2912
(dp2913
g2494
I0
sg15
I0
sg6
I0
sg2495
I0
sg8
I0
sg2496
I0
sg11
I0
ssS'webservice.cmsapp'
p2914
(dp2915
g2494
I0
sg15
I0
sg6
I0
sg2495
I0
sg8
I0
sg2496
I0
sg11
I0
ssg95
(dp2916
g2494
I0
sg15
I0
sg6
I0
sg2495
I0
sg8
I0
sg2496
I0
sg11
I0
ssg1634
(dp2917
g2494
I0
sg15
I0
sg6
I0
sg2495
I0
sg8
I0
sg2496
I0
sg11
I0
ssS'publish3.playback_info'
p2918
(dp2919
g2494
I0
sg15
I0
sg6
I0
sg2495
I0
sg8
I0
sg2496
I0
sg11
I0
ssS'QIS.rim'
p2920
(dp2921
g2494
I0
sg15
I0
sg6
I0
sg2495
I0
sg8
I0
sg2496
I0
sg11
I0
ssg99
(dp2922
g2494
I0
sg15
I0
sg6
I0
sg2495
I0
sg8
I0
sg2496
I0
sg11
I0
ssg940
(dp2923
g2494
I0
sg15
I0
sg6
I0
sg2495
I0
sg8
I0
sg2496
I0
sg11
I0
ssg795
(dp2924
g2494
I0
sg15
I0
sg6
I0
sg2495
I0
sg8
I0
sg2496
I0
sg11
I0
ssg1255
(dp2925
g2494
I0
sg15
I0
sg6
I0
sg2495
I0
sg8
I0
sg2496
I0
sg11
I0
ssg406
(dp2926
g2494
I0
sg15
I0
sg6
I0
sg2495
I0
sg8
I0
sg2496
I0
sg11
I0
ssS'webservice.common'
p2927
(dp2928
g2494
I0
sg15
I0
sg6
I0
sg2495
I0
sg8
I0
sg2496
I0
sg11
I0
ssg124
(dp2929
g2494
I0
sg15
I0
sg6
I0
sg2495
I0
sg8
I0
sg2496
I0
sg11
I0
ssg952
(dp2930
g2494
I0
sg15
I0
sg6
I0
sg2495
I0
sg8
I0
sg2496
I0
sg11
I0
ssg1486
(dp2931
g2494
I0
sg15
I0
sg6
I0
sg2495
I0
sg8
I0
sg2496
I0
sg11
I0
ssS'publish3.tools.vodsyndication.__init__'
p2932
(dp2933
g2494
I0
sg15
I0
sg6
I0
sg2495
I0
sg8
I0
sg2496
I0
sg11
I0
ssg602
(dp2934
g2494
I0
sg15
I0
sg6
I0
sg2495
I0
sg8
I0
sg2496
I0
sg11
I0
ssg60
(dp2935
g2494
I0
sg15
I0
sg6
I0
sg2495
I0
sg8
I0
sg2496
I0
sg11
I0
ssg235
(dp2936
g2494
I0
sg15
I0
sg6
I0
sg2495
I0
sg8
I0
sg2496
I0
sg11
I0
ssS'QIS'
p2937
(dp2938
g2494
I0
sg15
I0
sg6
I0
sg2495
I0
sg8
I0
sg2496
I0
sg11
I0
ssg921
(dp2939
g2494
I0
sg15
I0
sg6
I0
sg2495
I0
sg8
I0
sg2496
I0
sg11
I0
ssg1090
(dp2940
g2494
I0
sg15
I0
sg6
I0
sg2495
I0
sg8
I0
sg2496
I0
sg11
I0
ssS'CMS.UserAdmin'
p2941
(dp2942
g2494
I0
sg15
I0
sg6
I0
sg2495
I0
sg8
I0
sg2496
I0
sg11
I0
ssg937
(dp2943
g2494
I0
sg15
I0
sg6
I0
sg2495
I0
sg8
I0
sg2496
I0
sg11
I0
ssS'webservice.streams'
p2944
(dp2945
g2494
I0
sg15
I0
sg6
I0
sg2495
I0
sg8
I0
sg2496
I0
sg11
I0
ssS'CMS.DB'
p2946
(dp2947
g2494
I0
sg15
I0
sg6
I0
sg2495
I0
sg8
I0
sg2496
I0
sg11
I0
ssS'publish3.ComplexSetting'
p2948
(dp2949
g2494
I0
sg15
I0
sg6
I0
sg2495
I0
sg8
I0
sg2496
I0
sg11
I0
ssS'publish3.integration.contentdirect.sync'
p2950
(dp2951
g2494
I0
sg15
I0
sg6
I0
sg2495
I0
sg8
I0
sg2496
I0
sg11
I0
ssg2062
(dp2952
g2494
I0
sg15
I0
sg6
I0
sg2495
I0
sg8
I0
sg2496
I0
sg11
I0
ssS'epgimport.epg.cms'
p2953
(dp2954
g2494
I0
sg15
I0
sg6
I0
sg2495
I0
sg8
I0
sg2496
I0
sg11
I0
ssS'CMS.DonLib'
p2955
(dp2956
g2494
I0
sg15
I0
sg6
I0
sg2495
I0
sg8
I0
sg2496
I0
sg11
I0
ssS'CMS.transaction'
p2957
(dp2958
g2494
I0
sg15
I0
sg6
I0
sg2495
I0
sg8
I0
sg2496
I0
sg11
I0
ssS'CMS.ConfigRoot'
p2959
(dp2960
g2494
I0
sg15
I0
sg6
I0
sg2495
I0
sg8
I0
sg2496
I0
sg11
I0
ssS'CMS.ORM'
p2961
(dp2962
g2494
I0
sg15
I0
sg6
I0
sg2495
I0
sg8
I0
sg2496
I0
sg11
I0
ssS'test.wsapitest.__init__'
p2963
(dp2964
g2494
I0
sg15
I0
sg6
I0
sg2495
I0
sg8
I0
sg2496
I0
sg11
I0
ssS'publish3.tools.ap.secrets'
p2965
(dp2966
g2494
I0
sg15
I0
sg6
I0
sg2495
I0
sg8
I0
sg2496
I0
sg11
I0
ssg635
(dp2967
g2494
I0
sg15
I0
sg6
I0
sg2495
I0
sg8
I0
sg2496
I0
sg11
I0
ssg1165
(dp2968
g2494
I0
sg15
I0
sg6
I0
sg2495
I0
sg8
I0
sg2496
I0
sg11
I0
ssg563
(dp2969
g2494
I0
sg15
I0
sg6
I0
sg2495
I0
sg8
I0
sg2496
I0
sg11
I0
ssg44
(dp2970
g2494
I0
sg15
I0
sg6
I0
sg2495
I0
sg8
I0
sg2496
I0
sg11
I0
ssS'Streamlets'
p2971
(dp2972
g2494
I0
sg15
I0
sg6
I0
sg2495
I0
sg8
I0
sg2496
I0
sg11
I0
ssg175
(dp2973
g2494
I0
sg15
I0
sg6
I0
sg2495
I0
sg8
I0
sg2496
I0
sg11
I0
ssS'test.wsapitest.channeltest'
p2974
(dp2975
g2494
I0
sg15
I0
sg6
I0
sg2495
I0
sg8
I0
sg2496
I0
sg11
I0
ssg88
(dp2976
g2494
I0
sg15
I0
sg6
I0
sg2495
I0
sg8
I0
sg2496
I0
sg11
I0
ssS'CMS.Users'
p2977
(dp2978
g2494
I0
sg15
I0
sg6
I0
sg2495
I0
sg8
I0
sg2496
I0
sg11
I0
ssS'publish3.tools.vodsyndication.links'
p2979
(dp2980
g2494
I0
sg15
I0
sg6
I0
sg2495
I0
sg8
I0
sg2496
I0
sg11
I0
ssS'CMS.FTPHelp'
p2981
(dp2982
g2494
I0
sg15
I0
sg6
I0
sg2495
I0
sg8
I0
sg2496
I0
sg11
I0
ssg1123
(dp2983
g2494
I0
sg15
I0
sg6
I0
sg2495
I0
sg8
I0
sg2496
I0
sg11
I0
ssg127
(dp2984
g2494
I0
sg15
I0
sg6
I0
sg2495
I0
sg8
I0
sg2496
I0
sg11
I0
ssS'publish3.tools.securemedia'
p2985
(dp2986
g2494
I0
sg15
I0
sg6
I0
sg2495
I0
sg8
I0
sg2496
I0
sg11
I0
ssg261
(dp2987
g2494
I0
sg15
I0
sg6
I0
sg2495
I0
sg8
I0
sg2496
I0
sg11
I0
ssS'QIS.Encode'
p2988
(dp2989
g2494
I0
sg15
I0
sg6
I0
sg2495
I0
sg8
I0
sg2496
I0
sg11
I0
ssg434
(dp2990
g2494
I0
sg15
I0
sg6
I0
sg2495
I0
sg8
I0
sg2496
I0
sg11
I0
ssS'publish3.DateTimeUtil'
p2991
(dp2992
g2494
I0
sg15
I0
sg6
I0
sg2495
I0
sg8
I0
sg2496
I0
sg11
I0
ssg128
(dp2993
g2494
I0
sg15
I0
sg6
I0
sg2495
I0
sg8
I0
sg2496
I0
sg11
I0
ssS'CMS.package_config'
p2994
(dp2995
g2494
I0
sg15
I0
sg6
I0
sg2495
I0
sg8
I0
sg2496
I0
sg11
I0
ssS'webservice.search'
p2996
(dp2997
g2494
I0
sg15
I0
sg6
I0
sg2495
I0
sg8
I0
sg2496
I0
sg11
I0
ssg467
(dp2998
g2494
I0
sg15
I0
sg6
I0
sg2495
I0
sg8
I0
sg2496
I0
sg11
I0
ssg2192
(dp2999
g2494
I0
sg15
I0
sg6
I0
sg2495
I0
sg8
I0
sg2496
I0
sg11
I0
ssS'publish3.PricingModel'
p3000
(dp3001
g2494
I0
sg15
I0
sg6
I0
sg2495
I0
sg8
I0
sg2496
I0
sg11
I0
ssg72
(dp3002
g2494
I0
sg15
I0
sg6
I0
sg2495
I0
sg8
I0
sg2496
I0
sg11
I0
ssg546
(dp3003
g2494
I0
sg15
I0
sg6
I0
sg2495
I0
sg8
I0
sg2496
I0
sg11
I0
ssS'CMS.api.program'
p3004
(dp3005
g2494
I0
sg15
I0
sg6
I0
sg2495
I0
sg8
I0
sg2496
I0
sg11
I0
ssS'CMS.ConfigRIM'
p3006
(dp3007
g2494
I0
sg15
I0
sg6
I0
sg2495
I0
sg8
I0
sg2496
I0
sg11
I0
ssg895
(dp3008
g2494
I0
sg15
I0
sg6
I0
sg2495
I0
sg8
I0
sg2496
I0
sg11
I0
ssS'publish3.licensor'
p3009
(dp3010
g2494
I0
sg15
I0
sg6
I0
sg2495
I0
sg8
I0
sg2496
I0
sg11
I0
ssS'test.rim'
p3011
(dp3012
g2494
I0
sg15
I0
sg6
I0
sg2495
I0
sg8
I0
sg2496
I0
sg11
I0
ssS'SD.ArchiveJob'
p3013
(dp3014
g2494
I0
sg15
I0
sg6
I0
sg2495
I0
sg8
I0
sg2496
I0
sg11
I0
ssS'publish3.PUtil'
p3015
(dp3016
g2494
I0
sg15
I0
sg6
I0
sg2495
I0
sg8
I0
sg2496
I0
sg11
I0
ssg137
(dp3017
g2494
I0
sg15
I0
sg6
I0
sg2495
I0
sg8
I0
sg2496
I0
sg11
I0
ssg566
(dp3018
g2494
I0
sg15
I0
sg6
I0
sg2495
I0
sg8
I0
sg2496
I0
sg11
I0
ssS'test.orm_proxy'
p3019
(dp3020
g2494
I0
sg15
I0
sg6
I0
sg2495
I0
sg8
I0
sg2496
I0
sg11
I0
ssS'publish3.host_rules'
p3021
(dp3022
g2494
I0
sg15
I0
sg6
I0
sg2495
I0
sg8
I0
sg2496
I0
sg11
I0
ssg1317
(dp3023
g2494
I0
sg15
I0
sg6
I0
sg2495
I0
sg8
I0
sg2496
I0
sg11
I0
ssg265
(dp3024
g2494
I0
sg15
I0
sg6
I0
sg2495
I0
sg8
I0
sg2496
I0
sg11
I0
ssS'webservice'
p3025
(dp3026
g2494
I0
sg15
I0
sg6
I0
sg2495
I0
sg8
I0
sg2496
I0
sg11
I0
ssS'publish3.integration.__init__'
p3027
(dp3028
g2494
I0
sg15
I0
sg6
I0
sg2495
I0
sg8
I0
sg2496
I0
sg11
I0
ssg629
(dp3029
g2494
I0
sg15
I0
sg6
I0
sg2495
I0
sg8
I0
sg2496
I0
sg11
I0
ssS'publish3.BroadcastFeed'
p3030
(dp3031
g2494
I0
sg15
I0
sg6
I0
sg2495
I0
sg8
I0
sg2496
I0
sg11
I0
ssS'publish3.tools.__init__'
p3032
(dp3033
g2494
I0
sg15
I0
sg6
I0
sg2495
I0
sg8
I0
sg2496
I0
sg11
I0
ssS'publish3.tools.readechostar'
p3034
(dp3035
g2494
I0
sg15
I0
sg6
I0
sg2495
I0
sg8
I0
sg2496
I0
sg11
I0
ssg2064
(dp3036
g2494
I0
sg15
I0
sg6
I0
sg2495
I0
sg8
I0
sg2496
I0
sg11
I0
ssg932
(dp3037
g2494
I0
sg15
I0
sg6
I0
sg2495
I0
sg8
I0
sg2496
I0
sg11
I0
ssg653
(dp3038
g2494
I0
sg15
I0
sg6
I0
sg2495
I0
sg8
I0
sg2496
I0
sg11
I0
ssS'Streamlets.StreamletConst'
p3039
(dp3040
g2494
I0
sg15
I0
sg6
I0
sg2495
I0
sg8
I0
sg2496
I0
sg11
I0
ssg97
(dp3041
g2494
I0
sg15
I0
sg6
I0
sg2495
I0
sg8
I0
sg2496
I0
sg11
I0
ssg2356
(dp3042
g2494
I0
sg15
I0
sg6
I0
sg2495
I0
sg8
I0
sg2496
I0
sg11
I0
ssg667
(dp3043
g2494
I0
sg15
I0
sg6
I0
sg2495
I0
sg8
I0
sg2496
I0
sg11
I0
ssg730
(dp3044
g2494
I0
sg15
I0
sg6
I0
sg2495
I0
sg8
I0
sg2496
I0
sg11
I0
ssS'publish3.Lifecycle'
p3045
(dp3046
g2494
I0
sg15
I0
sg6
I0
sg2495
I0
sg8
I0
sg2496
I0
sg11
I0
ssg796
(dp3047
g2494
I0
sg15
I0
sg6
I0
sg2495
I0
sg8
I0
sg2496
I0
sg11
I0
ssS'SD.JobQ'
p3048
(dp3049
g2494
I0
sg15
I0
sg6
I0
sg2495
I0
sg8
I0
sg2496
I0
sg11
I0
ssS'publish3.AdiParser'
p3050
(dp3051
g2494
I0
sg15
I0
sg6
I0
sg2495
I0
sg8
I0
sg2496
I0
sg11
I0
ssg935
(dp3052
g2494
I0
sg15
I0
sg6
I0
sg2495
I0
sg8
I0
sg2496
I0
sg11
I0
ssg82
(dp3053
g2494
I0
sg15
I0
sg6
I0
sg2495
I0
sg8
I0
sg2496
I0
sg11
I0
ssg1423
(dp3054
g2494
I0
sg15
I0
sg6
I0
sg2495
I0
sg8
I0
sg2496
I0
sg11
I0
ssg419
(dp3055
g2494
I0
sg15
I0
sg6
I0
sg2495
I0
sg8
I0
sg2496
I0
sg11
I0
ssg173
(dp3056
g2494
I0
sg15
I0
sg6
I0
sg2495
I0
sg8
I0
sg2496
I0
sg11
I0
ssg481
(dp3057
g2494
I0
sg15
I0
sg6
I0
sg2495
I0
sg8
I0
sg2496
I0
sg11
I0
ssg2196
(dp3058
g2494
I0
sg15
I0
sg6
I0
sg2495
I0
sg8
I0
sg2496
I0
sg11
I0
ssg46
(dp3059
g2494
I0
sg15
I0
sg6
I0
sg2495
I0
sg8
I0
sg2496
I0
sg11
I0
ssg283
(dp3060
g2494
I0
sg15
I0
sg6
I0
sg2495
I0
sg8
I0
sg2496
I0
sg11
I0
ssg791
(dp3061
g2494
I0
sg15
I0
sg6
I0
sg2495
I0
sg8
I0
sg2496
I0
sg11
I0
ssS'publish3.tools.publisherserver'
p3062
(dp3063
g2494
I0
sg15
I0
sg6
I0
sg2495
I0
sg8
I0
sg2496
I0
sg11
I0
ssg793
(dp3064
g2494
I0
sg15
I0
sg6
I0
sg2495
I0
sg8
I0
sg2496
I0
sg11
I0
ssg428
(dp3065
g2494
I0
sg15
I0
sg6
I0
sg2495
I0
sg8
I0
sg2496
I0
sg11
I0
ssg695
(dp3066
g2494
I0
sg15
I0
sg6
I0
sg2495
I0
sg8
I0
sg2496
I0
sg11
I0
ssS'webservice.vendors'
p3067
(dp3068
g2494
I0
sg15
I0
sg6
I0
sg2495
I0
sg8
I0
sg2496
I0
sg11
I0
ssS'publish3.integration.contentdirect.__init__'
p3069
(dp3070
g2494
I0
sg15
I0
sg6
I0
sg2495
I0
sg8
I0
sg2496
I0
sg11
I0
ssg468
(dp3071
g2494
I0
sg15
I0
sg6
I0
sg2495
I0
sg8
I0
sg2496
I0
sg11
I0
ssS'publish3.source_event'
p3072
(dp3073
g2494
I0
sg15
I0
sg6
I0
sg2495
I0
sg8
I0
sg2496
I0
sg11
I0
ssg98
(dp3074
g2494
I0
sg15
I0
sg6
I0
sg2495
I0
sg8
I0
sg2496
I0
sg11
I0
ssS'publish3.tools.migration.helpers'
p3075
(dp3076
g2494
I0
sg15
I0
sg6
I0
sg2495
I0
sg8
I0
sg2496
I0
sg11
I0
sssg2494
I0
sg2495
I0
sg2496
I0
sS'badname_attr'
p3077
I261
sS'cycles'
p3078
(lp3079
s.